(dp0
S'fawn'
p1
I0
sS'pardon'
p2
I1
sS'yellow'
p3
I0
sS'four'
p4
I0
sS'hath'
p5
I0
sS'woods'
p6
I0
sS'sleep'
p7
I1
sS'suffring'
p8
I0
sS'hanging'
p9
I1
sS'mansion'
p10
I1
sS'appetite'
p11
I0
sS'evermore'
p12
I1
sS'hate'
p13
I0
sS'forget'
p14
I0
sS'whose'
p15
I1
sS'feeding'
p16
I0
sS'vile'
p17
I1
sS'granting'
p18
I0
sS'sweetest'
p19
I1
sS'painters'
p20
I1
sS'walks'
p21
I1
sS'whatsoever'
p22
I1
sS'under'
p23
I0
sS'lord'
p24
I0
sS'sorry'
p25
I1
sS'pride'
p26
I1
sS'sway'
p27
I1
sS'worth'
p28
I1
sS'wondrous'
p29
I1
sS'discased'
p30
I0
sS'dispense'
p31
I1
sS'hadst'
p32
I1
sS'inhearse'
p33
I0
sS'worms'
p34
I1
sS'shoot'
p35
I1
sS'every'
p36
I1
sS'foul'
p37
I1
sS'nourished'
p38
I0
sS'uncertain'
p39
I1
sS'special'
p40
I1
sS'believed'
p41
I1
sS'uttering'
p42
I0
sS'prize'
p43
I1
sS'unrest'
p44
I0
sS'graced'
p45
I0
sS'succession'
p46
I0
sS'graces'
p47
I1
sS'triumph'
p48
I0
sS'enjoy'
p49
I0
sS'charactered'
p50
I1
sS'charter'
p51
I1
sS'force'
p52
I1
sS'tired'
p53
I0
sS'awake'
p54
I0
sS'razed'
p55
I1
sS'out-going'
p56
I0
sS'assure'
p57
I0
sS'tires'
p58
I1
sS'crave'
p59
I0
sS'persuade'
p60
I0
sS'lourst'
p61
I1
sS'quill'
p62
I1
sS'even'
p63
I1
sS'beated'
p64
I0
sS'captain'
p65
I1
sS'hide'
p66
I1
sS'solemn'
p67
I1
sS'thunder'
p68
I1
sS'fingers'
p69
I1
sS'liberty'
p70
I0
sS'lights'
p71
I0
sS'wandrest'
p72
I1
sS'wakened'
p73
I1
sS'above'
p74
I0
sS'feelst'
p75
I1
sS'matcheth'
p76
I1
sS'new'
p77
I0
sS'poorly'
p78
I1
sS'ever'
p79
I0
sS'eves'
p80
I0
sS'told'
p81
I1
sS'deemed'
p82
I1
sS'merchandized'
p83
I1
sS'sinks'
p84
I0
sS'join'
p85
I0
sS'never'
p86
I1
sS'here'
p87
I1
sS'herd'
p88
I1
sS'beck'
p89
I1
sS'pursuit'
p90
I1
sS'active'
p91
I1
sS'spies'
p92
I1
sS'a-doting'
p93
I0
sS'effectually'
p94
I0
sS'dry'
p95
I1
sS'resty'
p96
I1
sS'substance'
p97
I1
sS'gaol'
p98
I1
sS'leaves'
p99
I1
sS'climbed'
p100
I1
sS'credit'
p101
I1
sS'smoke'
p102
I1
sS'natures'
p103
I1
sS'bettered'
p104
I1
sS'mistake'
p105
I1
sS'settled'
p106
I1
sS'politic'
p107
I1
sS'golden'
p108
I1
sS'swearing'
p109
I1
sS'divide'
p110
I0
sS'motley'
p111
I1
sS'blessed-fair'
p112
I1
sS'sorrows'
p113
I0
sS'patience'
p114
I1
sS'stern'
p115
I0
sS'glance'
p116
I1
sS'presents'
p117
I0
sS'budding'
p118
I1
sS'would'
p119
I0
sS'recured'
p120
I0
sS'junes'
p121
I0
sS'music'
p122
I1
sS'therefore'
p123
I1
sS'survive'
p124
I0
sS'gilding'
p125
I0
sS'tell'
p126
I1
sS'breathe'
p127
I1
sS'leese'
p128
I0
sS'unbless'
p129
I0
sS'holy'
p130
I1
sS'wary'
p131
I1
sS'brings'
p132
I0
sS'wars'
p133
I1
sS'muse'
p134
I1
sS'pierced'
p135
I1
sS'grief'
p136
I1
sS'glass'
p137
I0
sS'warm'
p138
I0
sS'former'
p139
I1
sS'excellent'
p140
I1
sS'robbing'
p141
I0
sS'ward'
p142
I1
sS'hold'
p143
I0
sS'striving'
p144
I0
sS'must'
p145
I0
sS'me'
p146
I1
sS'locked'
p147
I0
sS'room'
p148
I1
sS'err'
p149
I1
sS'rights'
p150
I1
sS'work'
p151
I1
sS'eclipse'
p152
I0
sS'roof'
p153
I0
sS'meadows'
p154
I1
sS'ere'
p155
I0
sS'runst'
p156
I1
sS'leaped'
p157
I1
sS'revenues'
p158
I0
sS'my'
p159
I0
sS'example'
p160
I0
sS'lodged'
p161
I1
sS'phrase'
p162
I1
sS'subtleties'
p163
I1
sS'fresher'
p164
I1
sS'wane'
p165
I1
sS'unjust'
p166
I0
sS'honey'
p167
I1
sS'foist'
p168
I1
sS'want'
p169
I0
sS'times'
p170
I0
sS'worse'
p171
I1
sS'ceremony'
p172
I1
sS'end'
p173
I1
sS'gusts'
p174
I1
sS'provide'
p175
I0
sS'dignifies'
p176
I1
sS'travel'
p177
I1
sS'indirectly'
p178
I1
sS'feature'
p179
I1
sS'wights'
p180
I1
sS'faults'
p181
I1
sS'hot'
p182
I1
sS'writers'
p183
I0
sS'answer'
p184
I1
sS'gate'
p185
I1
sS'dignified'
p186
I1
sS'blanks'
p187
I1
sS'beauty'
p188
I1
sS'after'
p189
I1
sS'wrong'
p190
I1
sS'lay'
p191
I0
sS'lap'
p192
I0
sS'wronk'
p193
I0
sS'youths'
p194
I1
sS'revolt'
p195
I0
sS'greet'
p196
I1
sS'purging'
p197
I1
sS'wink'
p198
I0
sS'maintain'
p199
I1
sS'haste'
p200
I1
sS'keeps'
p201
I0
sS'alack'
p202
I0
sS'wouldst'
p203
I0
sS'wind'
p204
I1
sS'bed-vow'
p205
I1
sS'determinate'
p206
I0
sS'couplement'
p207
I1
sS'helens'
p208
I1
sS'after-loss'
p209
I0
sS'office'
p210
I0
sS'consent'
p211
I1
sS'profaned'
p212
I0
sS'sickly'
p213
I0
sS'fortify'
p214
I0
sS'ghastly'
p215
I1
sS'strangle'
p216
I1
sS'wrought'
p217
I1
sS'before'
p218
I0
sS'better'
p219
I1
sS'fade'
p220
I1
sS'carve'
p221
I1
sS'hidden'
p222
I1
sS'savour'
p223
I1
sS'then'
p224
I0
sS'them'
p225
I0
sS'blots'
p226
I1
sS'enrich'
p227
I0
sS'thee'
p228
I0
sS'break'
p229
I0
sS'throned'
p230
I1
sS'diseased'
p231
I0
sS'they'
p232
I0
sS'glazed'
p233
I1
sS'silver'
p234
I1
sS'shadows'
p235
I1
sS'rhetoric'
p236
I0
sS'brightness'
p237
I1
sS'slavery'
p238
I1
sS'rocks'
p239
I1
sS'herald'
p240
I1
sS'victories'
p241
I1
sS'each'
p242
I0
sS'wantonly'
p243
I1
sS'dulness'
p244
I1
sS'went'
p245
I0
sS'side'
p246
I1
sS'luck'
p247
I1
sS'true-telling'
p248
I0
sS'woes'
p249
I1
sS'concord'
p250
I1
sS'distempered'
p251
I0
sS'taught'
p252
I1
sS'forgot'
p253
I1
sS'misprision'
p254
I0
sS'whit'
p255
I0
sS'truant'
p256
I1
sS'array'
p257
I1
sS'borne'
p258
I1
sS'contend'
p259
I1
sS'large'
p260
I0
sS'decree'
p261
I1
sS'weakness'
p262
I1
sS'sang'
p263
I1
sS'god'
p264
I1
sS'frownst'
p265
I0
sS'forty'
p266
I1
sS'content'
p267
I0
sS'laid'
p268
I0
sS'heart-inflaming'
p269
I1
sS'heavenly'
p270
I1
sS'got'
p271
I1
sS'marigold'
p272
I1
sS'forth'
p273
I0
sS'prizing'
p274
I1
sS'assured'
p275
I0
sS'written'
p276
I1
sS'fadeth'
p277
I1
sS'hang'
p278
I0
sS'deceived'
p279
I0
sS'eternal'
p280
I0
sS'given'
p281
I1
sS'free'
p282
I1
sS'mourning'
p283
I1
sS'mistaking'
p284
I0
sS'bestow'
p285
I0
sS'whereupon'
p286
I1
sS'evil'
p287
I1
sS'crowned'
p288
I0
sS'mistress'
p289
I1
sS'knit'
p290
I1
sS'wantonness'
p291
I1
sS'delves'
p292
I1
sS'created'
p293
I0
sS'days'
p294
I1
sS'ist'
p295
I0
sS'bears'
p296
I1
sS'renew'
p297
I0
sS'tempting'
p298
I1
sS'unknown'
p299
I1
sS'tied'
p300
I1
sS'potions'
p301
I1
sS'selfs'
p302
I1
sS'ruinate'
p303
I0
sS'user'
p304
I1
sS'separable'
p305
I1
sS'untutored'
p306
I0
sS'already'
p307
I0
sS'crowning'
p308
I0
sS'hearsay'
p309
I1
sS'rank'
p310
I1
sS'hearing'
p311
I0
sS'jealous'
p312
I1
sS'featured'
p313
I0
sS'another'
p314
I0
sS'sober'
p315
I1
sS'filching'
p316
I1
sS'exchequer'
p317
I1
sS'usurer'
p318
I1
sS'top'
p319
I1
sS'night'
p320
I1
sS'millioned'
p321
I0
sS'master'
p322
I0
sS'too'
p323
I0
sS'dwell'
p324
I1
sS'bodys'
p325
I0
sS'hearst'
p326
I1
sS'bitter'
p327
I1
sS'saith'
p328
I0
sS'broils'
p329
I1
sS'feathers'
p330
I0
sS'griefs'
p331
I1
sS'took'
p332
I0
sS'wisdom'
p333
I1
sS'wardrobe'
p334
I1
sS'character'
p335
I1
sS'begins'
p336
I0
sS'distance'
p337
I0
sS'coward'
p338
I1
sS'bitterness'
p339
I0
sS'idly'
p340
I1
sS'matter'
p341
I0
sS'idle'
p342
I1
sS'titles'
p343
I0
sS'flame'
p344
I1
sS'friend'
p345
I0
sS'deserving'
p346
I0
sS'askance'
p347
I0
sS'knights'
p348
I1
sS'feeling'
p349
I1
sS'powers'
p350
I1
sS'swift-footed'
p351
I1
sS'sendst'
p352
I1
sS'fashion'
p353
I0
sS'sees'
p354
I0
sS'hue'
p355
I1
sS'modern'
p356
I1
sS'mind'
p357
I1
sS'mine'
p358
I1
sS'spent'
p359
I1
sS'manner'
p360
I1
sS'amiss'
p361
I0
sS'bewailed'
p362
I0
sS'churl'
p363
I0
sS'seem'
p364
I1
sS'seek'
p365
I1
sS'tells'
p366
I1
sS'contents'
p367
I0
sS'praising'
p368
I0
sS'strength'
p369
I1
sS'neck'
p370
I1
sS'snow'
p371
I1
sS'sound'
p372
I1
sS'knowst'
p373
I1
sS'subjects'
p374
I1
sS'scaped'
p375
I0
sS'laughed'
p376
I1
sS'pilgrimage'
p377
I1
sS'rider'
p378
I1
sS'aggravate'
p379
I1
sS'maiden'
p380
I1
sS'though'
p381
I1
sS'object'
p382
I1
sS'dial'
p383
I1
sS'justify'
p384
I1
sS'dulling'
p385
I0
sS'errors'
p386
I1
sS'ashes'
p387
I1
sS'disarmed'
p388
I0
sS'grave'
p389
I1
sS'shalt'
p390
I0
sS'constancy'
p391
I1
sS'consumed'
p392
I0
sS'flow'
p393
I1
sS'breathes'
p394
I1
sS'steeled'
p395
I0
sS'points'
p396
I0
sS'wrecked'
p397
I1
sS'fitted'
p398
I1
sS'reserve'
p399
I0
sS'wild'
p400
I0
sS'renewed'
p401
I0
sS'bait'
p402
I1
sS'oaths'
p403
I0
sS'enjoyer'
p404
I0
sS'ending'
p405
I1
sS'poison'
p406
I1
sS'earth'
p407
I1
sS'bail'
p408
I1
sS'enjoyed'
p409
I0
sS'bearer'
p410
I1
sS'touches'
p411
I1
sS'copy'
p412
I1
sS'proposed'
p413
I0
sS'spite'
p414
I1
sS'herself'
p415
I0
sS'cupid'
p416
I1
sS'mens'
p417
I0
sS'bliss'
p418
I1
sS'touched'
p419
I1
sS'rich'
p420
I1
sS'pursuing'
p421
I0
sS'mend'
p422
I1
sS'worser'
p423
I1
sS'monuments'
p424
I1
sS'borrowed'
p425
I1
sS'do'
p426
I0
sS'blenches'
p427
I1
sS'forsworn'
p428
I0
sS'stop'
p429
I0
sS'perceive'
p430
I0
sS'leisure'
p431
I0
sS'raiment'
p432
I1
sS'gored'
p433
I0
sS'bootless'
p434
I0
sS'spirit'
p435
I1
sS'despite'
p436
I0
sS'report'
p437
I1
sS'saturn'
p438
I1
sS'seemly'
p439
I1
sS'runs'
p440
I1
sS'increasing'
p441
I0
sS'bar'
p442
I1
sS'exchanged'
p443
I0
sS'thrusts'
p444
I1
sS'doting'
p445
I1
sS'twice'
p446
I1
sS'eyelids'
p447
I1
sS'esteeming'
p448
I0
sS'hasten'
p449
I0
sS'steal'
p450
I0
sS'thanks'
p451
I1
sS'unprovident'
p452
I0
sS'penance'
p453
I1
sS'unrespected'
p454
I1
sS'fair'
p455
I1
sS'habit'
p456
I1
sS'imitate'
p457
I1
sS'proclaims'
p458
I0
sS'depends'
p459
I0
sS'corrupt'
p460
I0
sS'best'
p461
I1
sS'subject'
p462
I1
sS'said'
p463
I0
sS'temptation'
p464
I1
sS'away'
p465
I0
sS'sail'
p466
I1
sS'bier'
p467
I1
sS'madding'
p468
I1
sS'wilful-slow'
p469
I1
sS'mud'
p470
I1
sS'score'
p471
I1
sS'finger'
p472
I1
sS'pebbled'
p473
I0
sS'scorn'
p474
I1
sS'drawn'
p475
I0
sS'enlighten'
p476
I0
sS'preserve'
p477
I0
sS'warrior'
p478
I1
sS'we'
p479
I0
sS'men'
p480
I1
sS'terms'
p481
I1
sS'parallels'
p482
I1
sS'nature'
p483
I1
sS'weak'
p484
I1
sS'ignorance'
p485
I1
sS'authorizing'
p486
I0
sS'disdaineth'
p487
I1
sS'wear'
p488
I1
sS'diest'
p489
I1
sS'news'
p490
I0
sS'debt'
p491
I1
sS'tempests'
p492
I1
sS'pity'
p493
I1
sS'foes'
p494
I1
sS'goddess'
p495
I1
sS'accident'
p496
I0
sS'disdain'
p497
I0
sS'fault'
p498
I1
sS'ill'
p499
I1
sS'against'
p500
I0
sS'brag'
p501
I1
sS'receives'
p502
I0
sS'faces'
p503
I0
sS'exceeds'
p504
I0
sS'expense'
p505
I1
sS'groans'
p506
I1
sS'asked'
p507
I1
sS'suggest'
p508
I1
sS'vexed'
p509
I1
sS'honouring'
p510
I1
sS'burthen'
p511
I1
sS'height'
p512
I1
sS'hers'
p513
I0
sS'prone'
p514
I1
sS'springs'
p515
I0
sS'over-plus'
p516
I1
sS'trust'
p517
I1
sS'heals'
p518
I1
sS'speak'
p519
I0
sS'yellowed'
p520
I1
sS'unhappily'
p521
I0
sS'puts'
p522
I1
sS'eager'
p523
I1
sS'time-bettering'
p524
I1
sS'three'
p525
I1
sS'been'
p526
I1
sS'particulars'
p527
I0
sS'twain'
p528
I1
sS'much'
p529
I1
sS'interest'
p530
I1
sS'incertainty'
p531
I0
sS'privilege'
p532
I1
sS'vermilion'
p533
I0
sS'lovely'
p534
I1
sS'thrice'
p535
I1
sS'idol'
p536
I1
sS'life'
p537
I1
sS'fleeting'
p538
I1
sS'easy'
p539
I1
sS'erred'
p540
I1
sS'drugs'
p541
I0
sS'maladies'
p542
I1
sS'feedst'
p543
I0
sS'decrepit'
p544
I0
sS'dote'
p545
I1
sS'child'
p546
I1
sS'catch'
p547
I1
sS'doth'
p548
I0
sS'erst'
p549
I1
sS'gracious'
p550
I1
sS'physician'
p551
I0
sS'east'
p552
I1
sS'weret'
p553
I0
sS'air'
p554
I1
sS'lesser'
p555
I1
sS'ugly'
p556
I1
sS'near'
p557
I1
sS'suppose'
p558
I0
sS'aid'
p559
I1
sS'voice'
p560
I1
sS'weakens'
p561
I1
sS'played'
p562
I1
sS'is'
p563
I0
sS'putst'
p564
I1
sS'it'
p565
I1
sS'defeated'
p566
I0
sS'shame'
p567
I0
sS'to-morrow'
p568
I1
sS'splendour'
p569
I1
sS'in'
p570
I0
sS'bounteous'
p571
I1
sS'if'
p572
I0
sS'grown'
p573
I1
sS'wooing'
p574
I0
sS'memorial'
p575
I0
sS'awakes'
p576
I0
sS'cools'
p577
I1
sS'patent'
p578
I1
sS'things'
p579
I0
sS'make'
p580
I1
sS'wound'
p581
I1
sS'beside'
p582
I1
sS'several'
p583
I1
sS'grows'
p584
I1
sS'entitled'
p585
I0
sS'lusty'
p586
I1
sS'fairly'
p587
I1
sS'oersways'
p588
I0
sS'permit'
p589
I0
sS'tops'
p590
I1
sS'rain'
p591
I0
sS'hand'
p592
I1
sS'delight'
p593
I0
sS'supposing'
p594
I0
sS'dark'
p595
I1
sS'bequest'
p596
I0
sS'blamed'
p597
I1
sS'thoughts'
p598
I1
sS'censures'
p599
I1
sS'kept'
p600
I1
sS'thy'
p601
I0
sS'singleness'
p602
I1
sS'sweetness'
p603
I1
sS'possessed'
p604
I0
sS'humble'
p605
I1
sS'inherit'
p606
I1
sS'ocean'
p607
I1
sS'ragged'
p608
I1
sS'fulness'
p609
I0
sS'greatest'
p610
I1
sS'incapable'
p611
I0
sS'mother'
p612
I1
sS'hearts'
p613
I1
sS'the'
p614
I0
sS'cure'
p615
I1
sS'yours'
p616
I1
sS'left'
p617
I1
sS'reeks'
p618
I1
sS'just'
p619
I0
sS'wasteful'
p620
I1
sS'yea'
p621
I0
sS'unfair'
p622
I0
sS'repose'
p623
I0
sS'verses'
p624
I0
sS'maketh'
p625
I1
sS'farther'
p626
I0
sS'swears'
p627
I1
sS'prognosticate'
p628
I0
sS'plight'
p629
I1
sS'yet'
p630
I1
sS'succeeding'
p631
I0
sS'vices'
p632
I1
sS'adding'
p633
I1
sS'keepst'
p634
I1
sS'dearer'
p635
I0
sS'compeers'
p636
I1
sS'had'
p637
I0
sS'counted'
p638
I1
sS'presagers'
p639
I0
sS'alchemy'
p640
I1
sS'belongs'
p641
I0
sS'beloved'
p642
I0
sS'prison'
p643
I0
sS'hap'
p644
I1
sS'pitiful'
p645
I0
sS'save'
p646
I0
sS'gave'
p647
I0
sS'oerpressed'
p648
I0
sS'dignity'
p649
I1
sS'spacious'
p650
I1
sS'reviewest'
p651
I0
sS'birth'
p652
I1
sS'shadow'
p653
I1
sS'dreams'
p654
I1
sS'desire'
p655
I0
sS'brought'
p656
I1
sS'gift'
p657
I1
sS'new-found'
p658
I1
sS'vilest'
p659
I1
sS'offices'
p660
I1
sS'gildst'
p661
I1
sS'hung'
p662
I0
sS'antique'
p663
I1
sS'dyers'
p664
I1
sS'right'
p665
I0
sS'old'
p666
I1
sS'flatter'
p667
I1
sS'all-oblivious'
p668
I1
sS'deaf'
p669
I1
sS'short-numbered'
p670
I0
sS'dead'
p671
I1
sS'born'
p672
I1
sS'winds'
p673
I1
sS'dear'
p674
I0
sS'altered'
p675
I1
sS'bore'
p676
I1
sS'guess'
p677
I1
sS'creep'
p678
I0
sS'enemies'
p679
I1
sS'for'
p680
I0
sS'rehearse'
p681
I0
sS'comments'
p682
I0
sS'foe'
p683
I1
sS'denied'
p684
I0
sS'bold'
p685
I1
sS'plot'
p686
I0
sS'burn'
p687
I0
sS'divining'
p688
I0
sS'forgetst'
p689
I0
sS'shifting'
p690
I1
sS'losing'
p691
I1
sS'taker'
p692
I1
sS'peep'
p693
I1
sS'disdains'
p694
I0
sS'shaken'
p695
I1
sS'proceed'
p696
I0
sS'theirs'
p697
I0
sS'coral'
p698
I0
sS'haply'
p699
I1
sS'frailer'
p700
I1
sS'o'
p701
I0
sS'costs'
p702
I1
sS'despair'
p703
I0
sS'guilty'
p704
I1
sS'cherish'
p705
I0
sS'commit'
p706
I0
sS'lacked'
p707
I1
sS'inheritors'
p708
I0
sS'bath'
p709
I0
sS'raised'
p710
I0
sS'faint'
p711
I1
sS'dials'
p712
I1
sS'presence'
p713
I1
sS'civil'
p714
I1
sS'pays'
p715
I1
sS'nought'
p716
I1
sS'bound'
p717
I0
sS'son'
p718
I1
sS'down'
p719
I1
sS'lies'
p720
I0
sS'refined'
p721
I0
sS'methods'
p722
I1
sS'strangely'
p723
I1
sS'despised'
p724
I1
sS'jealousy'
p725
I1
sS'teachest'
p726
I1
sS'fight'
p727
I1
sS'virgin'
p728
I1
sS'way'
p729
I0
sS'call'
p730
I0
sS'was'
p731
I0
sS'war'
p732
I1
sS'happy'
p733
I1
sS'head'
p734
I1
sS'faring'
p735
I1
sS'form'
p736
I1
sS'statute'
p737
I1
sS'crown'
p738
I1
sS'tigers'
p739
I1
sS'forgetful'
p740
I0
sS'fore'
p741
I0
sS'heinous'
p742
I1
sS'pricked'
p743
I1
sS'heat'
p744
I1
sS'hear'
p745
I1
sS'odours'
p746
I1
sS'learned'
p747
I1
sS'astonished'
p748
I0
sS'blindness'
p749
I1
sS'removed'
p750
I0
sS'true'
p751
I0
sS'deepest'
p752
I1
sS'fort'
p753
I0
sS'absent'
p754
I1
sS'lilies'
p755
I0
sS'captive'
p756
I1
sS'extremity'
p757
I0
sS'bids'
p758
I1
sS'until'
p759
I0
sS'crystal'
p760
I1
sS'unfathered'
p761
I0
sS'adore'
p762
I0
sS'anew'
p763
I1
sS'engraft'
p764
I0
sS'bide'
p765
I1
sS'latch'
p766
I0
sS'trim'
p767
I1
sS'disgrace'
p768
I0
sS'ornaments'
p769
I1
sS'fury'
p770
I1
sS'sinful'
p771
I1
sS'steep-up'
p772
I1
sS'oer-green'
p773
I0
sS'sometime'
p774
I1
sS'subsist'
p775
I0
sS'shines'
p776
I0
sS'widows'
p777
I1
sS'injurious'
p778
I0
sS'posting'
p779
I1
sS'willingly'
p780
I1
sS'looked'
p781
I1
sS'dying'
p782
I0
sS'no'
p783
I0
sS'excel'
p784
I0
sS'actor'
p785
I1
sS'tis'
p786
I1
sS'thriftless'
p787
I1
sS'despising'
p788
I0
sS'adulterate'
p789
I0
sS'falsely'
p790
I1
sS'papers'
p791
I1
sS'tie'
p792
I0
sS'vanished'
p793
I1
sS'smell'
p794
I1
sS'eternity'
p795
I0
sS'picture'
p796
I1
sS'neer-cloying'
p797
I0
sS'intend'
p798
I0
sS'phoenix'
p799
I1
sS'pyramids'
p800
I1
sS'dies'
p801
I1
sS'welcome'
p802
I1
sS'first-born'
p803
I1
sS'present-absent'
p804
I1
sS'journey'
p805
I0
sS'reign'
p806
I1
sS'rolling'
p807
I1
sS'hurt'
p808
I0
sS'seeing'
p809
I1
sS'died'
p810
I1
sS'wrackful'
p811
I1
sS'to-day'
p812
I0
sS'longer'
p813
I1
sS'blushing'
p814
I1
sS'daily'
p815
I1
sS'beds'
p816
I1
sS'cheater'
p817
I1
sS'teeth'
p818
I1
sS'laws'
p819
I1
sS'restored'
p820
I1
sS'songs'
p821
I1
sS'whoever'
p822
I0
sS'varying'
p823
I0
sS'souls'
p824
I1
sS'invent'
p825
I0
sS'engrafted'
p826
I0
sS'leads'
p827
I0
sS'continual'
p828
I0
sS'slandered'
p829
I1
sS'idolatry'
p830
I0
sS'abundant'
p831
I0
sS'retention'
p832
I0
sS'mounted'
p833
I1
sS'praises'
p834
I1
sS'father'
p835
I1
sS'confounds'
p836
I0
sS'vex'
p837
I1
sS'charge'
p838
I1
sS'praised'
p839
I1
sS'lilys'
p840
I1
sS'suffered'
p841
I1
sS'addeth'
p842
I1
sS'furrows'
p843
I1
sS'abundance'
p844
I0
sS'strumpeted'
p845
I1
sS'greeing'
p846
I1
sS'string'
p847
I1
sS'advantage'
p848
I0
sS'drudge'
p849
I1
sS'fleece'
p850
I0
sS'votary'
p851
I1
sS'mourn'
p852
I1
sS'advised'
p853
I0
sS'word'
p854
I1
sS'trouble'
p855
I1
sS'feeble'
p856
I1
sS'cool'
p857
I0
sS'perceived'
p858
I1
sS'clouds'
p859
I0
sS'level'
p860
I0
sS'did'
p861
I0
sS'die'
p862
I1
sS'dig'
p863
I1
sS'leave'
p864
I1
sS'excellence'
p865
I1
sS'quick'
p866
I0
sS'prevent'
p867
I0
sS'brave'
p868
I1
sS'says'
p869
I1
sS'fearing'
p870
I1
sS'double-vantage'
p871
I1
sS'sigh'
p872
I1
sS'wherefore'
p873
I1
sS'cost'
p874
I1
sS'patient'
p875
I1
sS'fear'
p876
I1
sS'indigest'
p877
I1
sS'hymn'
p878
I0
sS'unswayed'
p879
I0
sS'curse'
p880
I0
sS'appear'
p881
I0
sS'battring'
p882
I1
sS'heres'
p883
I1
sS'assistance'
p884
I0
sS'contracted'
p885
I0
sS'favour'
p886
I1
sS'pleased'
p887
I1
sS'suspect'
p888
I0
sS'goes'
p889
I1
sS'pine'
p890
I1
sS'appeal'
p891
I0
sS'filled'
p892
I0
sS'clears'
p893
I1
sS'prescriptions'
p894
I0
sS'wail'
p895
I1
sS'honour'
p896
I1
sS'clerk'
p897
I1
sS'water'
p898
I1
sS'entertain'
p899
I1
sS'alone'
p900
I1
sS'appears'
p901
I0
sS'change'
p902
I1
sS'blunter'
p903
I1
sS'boy'
p904
I1
sS'boast'
p905
I0
sS'root'
p906
I0
sS'wherever'
p907
I0
sS'bow'
p908
I1
sS'spheres'
p909
I1
sS'shook'
p910
I1
sS'recounting'
p911
I0
sS'stained'
p912
I1
sS'love'
p913
I1
sS'humour'
p914
I1
sS'tempteth'
p915
I0
sS'bloody'
p916
I1
sS'withal'
p917
I0
sS'betraying'
p918
I0
sS'surmount'
p919
I0
sS'swallowed'
p920
I1
sS'swayst'
p921
I1
sS'voices'
p922
I1
sS'wealth'
p923
I1
sS'prove'
p924
I1
sS'sake'
p925
I1
sS'confounded'
p926
I0
sS'angry'
p927
I0
sS'give'
p928
I1
sS'only'
p929
I0
sS'tripping'
p930
I1
sS'wrongs'
p931
I1
sS'live'
p932
I0
sS'going'
p933
I1
sS'prey'
p934
I1
sS'memory'
p935
I1
sS'scope'
p936
I1
sS'loving'
p937
I1
sS'love-god'
p938
I1
sS'riot'
p939
I1
sS'sessions'
p940
I1
sS'towers'
p941
I1
sS'neglected'
p942
I0
sS'acceptable'
p943
I1
sS'aright'
p944
I0
sS'drown'
p945
I1
sS'everywhere'
p946
I0
sS'virtue'
p947
I1
sS'robe'
p948
I1
sS'epitaph'
p949
I1
sS'fly'
p950
I1
sS'impair'
p951
I0
sS'sheds'
p952
I1
sS'car'
p953
I1
sS'soul'
p954
I1
sS'purge'
p955
I1
sS'hardest'
p956
I1
sS'sour'
p957
I1
sS'can'
p958
I0
sS'growing'
p959
I0
sS'making'
p960
I0
sS'tune'
p961
I1
sS'deceased'
p962
I0
sS'breeds'
p963
I1
sS'heart'
p964
I1
sS'dedicated'
p965
I1
sS'respose'
p966
I0
sS'figure'
p967
I1
sS'predict'
p968
I0
sS'sense'
p969
I1
sS'famoused'
p970
I1
sS'heard'
p971
I1
sS'fortunes'
p972
I1
sS'purity'
p973
I1
sS'hides'
p974
I1
sS'stoln'
p975
I1
sS'provoke'
p976
I0
sS'stole'
p977
I1
sS'bereft'
p978
I0
sS'churls'
p979
I1
sS'winter'
p980
I1
sS'dress'
p981
I0
sS'divided'
p982
I0
sS'undivided'
p983
I1
sS'cloak'
p984
I1
sS'trophies'
p985
I1
sS'write'
p986
I0
sS'till'
p987
I0
sS'sword'
p988
I1
sS'husbandry'
p989
I1
sS'sworn'
p990
I1
sS'map'
p991
I1
sS'mar'
p992
I1
sS'where-through'
p993
I0
sS'all-tyrant'
p994
I0
sS'may'
p995
I1
sS'spot'
p996
I1
sS'siren'
p997
I1
sS'mad'
p998
I1
sS'date'
p999
I1
sS'such'
p1000
I0
sS'hateth'
p1001
I1
sS'flourish'
p1002
I1
sS'grow'
p1003
I0
sS'man'
p1004
I1
sS'temperate'
p1005
I1
sS'remember'
p1006
I0
sS'liquid'
p1007
I1
sS'candles'
p1008
I1
sS'rather'
p1009
I1
sS'so'
p1010
I1
sS'silence'
p1011
I1
sS'deceive'
p1012
I0
sS'thorns'
p1013
I1
sS'tall'
p1014
I0
sS'increase'
p1015
I0
sS'forced'
p1016
I1
sS'serving'
p1017
I1
sS'receivest'
p1018
I0
sS'indeed'
p1019
I0
sS'forfeit'
p1020
I1
sS'wishing'
p1021
I0
sS'years'
p1022
I0
sS'course'
p1023
I0
sS'pitch'
p1024
I1
sS'whats'
p1025
I0
sS'cold'
p1026
I0
sS'still'
p1027
I0
sS'birds'
p1028
I1
sS'trifle'
p1029
I1
sS'limbs'
p1030
I1
sS'derive'
p1031
I0
sS'thank'
p1032
I1
sS'how'
p1033
I1
sS'muses'
p1034
I1
sS'chips'
p1035
I1
sS'inferior'
p1036
I0
sS'curls'
p1037
I1
sS'maid'
p1038
I1
sS'tillage'
p1039
I1
sS'policy'
p1040
I1
sS'main'
p1041
I1
sS'into'
p1042
I0
sS'correspondence'
p1043
I0
sS'closure'
p1044
I1
sS'truest'
p1045
I1
sS'equipage'
p1046
I1
sS'thereby'
p1047
I0
sS'sooner'
p1048
I0
sS'delighted'
p1049
I0
sS'records'
p1050
I0
sS'half'
p1051
I1
sS'not'
p1052
I0
sS'now'
p1053
I1
sS'twilight'
p1054
I1
sS'nor'
p1055
I0
sS'wont'
p1056
I1
sS'term'
p1057
I1
sS'name'
p1058
I1
sS'servant'
p1059
I1
sS'drop'
p1060
I0
sS'breach'
p1061
I1
sS'veins'
p1062
I1
sS'orphans'
p1063
I1
sS'oertake'
p1064
I0
sS'surfeit'
p1065
I0
sS'yhave'
p1066
I0
sS'receipt'
p1067
I0
sS'richly'
p1068
I0
sS'fever'
p1069
I1
sS'farewell'
p1070
I0
sS'seeting'
p1071
I1
sS'year'
p1072
I1
sS'hymns'
p1073
I1
sS'living'
p1074
I1
sS'shown'
p1075
I1
sS'mouths'
p1076
I0
sS'space'
p1077
I1
sS'profit'
p1078
I1
sS'confine'
p1079
I0
sS'abide'
p1080
I0
sS'looking'
p1081
I0
sS'boundless'
p1082
I1
sS'grecian'
p1083
I1
sS'receiving'
p1084
I0
sS'correct'
p1085
I0
sS'shows'
p1086
I1
sS'worthiness'
p1087
I1
sS'siege'
p1088
I1
sS'cars'
p1089
I1
sS'sweet-seasoned'
p1090
I0
sS'quite'
p1091
I1
sS'rebel'
p1092
I1
sS'plea'
p1093
I1
sS'care'
p1094
I1
sS'advance'
p1095
I0
sS'embassage'
p1096
I1
sS'contented'
p1097
I0
sS'kingdoms'
p1098
I0
sS'honest'
p1099
I1
sS'motion'
p1100
I1
sS'thing'
p1101
I1
sS'thine'
p1102
I0
sS'place'
p1103
I1
sS'recompense'
p1104
I1
sS'sufferance'
p1105
I1
sS'widow'
p1106
I0
sS'warning'
p1107
I1
sS'think'
p1108
I0
sS'frequent'
p1109
I1
sS'first'
p1110
I1
sS'blind'
p1111
I1
sS'mayst'
p1112
I0
sS'waves'
p1113
I1
sS'one'
p1114
I0
sS'nativity'
p1115
I0
sS'consecrate'
p1116
I1
sS'long'
p1117
I1
sS'directly'
p1118
I0
sS'habitation'
p1119
I1
sS'carry'
p1120
I1
sS'ill-used'
p1121
I0
sS'sounds'
p1122
I1
sS'tame'
p1123
I1
sS'open'
p1124
I1
sS'affords'
p1125
I0
sS'millions'
p1126
I1
sS'interchange'
p1127
I1
sS'little'
p1128
I1
sS'checked'
p1129
I0
sS'silent'
p1130
I1
sS'breed'
p1131
I1
sS'fiery'
p1132
I0
sS'bounty'
p1133
I1
sS'white'
p1134
I1
sS'speaking'
p1135
I1
sS'gives'
p1136
I1
sS'gaudy'
p1137
I1
sS'eyes'
p1138
I1
sS'pomp'
p1139
I1
sS'blazon'
p1140
I1
sS'that'
p1141
I1
sS'brains'
p1142
I1
sS'universe'
p1143
I1
sS'proving'
p1144
I0
sS'alas'
p1145
I0
sS'eyed'
p1146
I1
sS'girded'
p1147
I1
sS'reproving'
p1148
I0
sS'flowers'
p1149
I1
sS'than'
p1150
I0
sS'wide'
p1151
I1
sS'wert'
p1152
I0
sS'require'
p1153
I1
sS'folly'
p1154
I1
sS'transferred'
p1155
I0
sS'were'
p1156
I1
sS'carcanet'
p1157
I1
sS'and'
p1158
I0
sS'desperate'
p1159
I1
sS'angel'
p1160
I1
sS'slay'
p1161
I1
sS'correction'
p1162
I0
sS'confessed'
p1163
I0
sS'turned'
p1164
I0
sS'argument'
p1165
I1
sS'jewels'
p1166
I1
sS'sad'
p1167
I1
sS'entombed'
p1168
I0
sS'say'
p1169
I1
sS'perfumes'
p1170
I1
sS'buried'
p1171
I1
sS'foiled'
p1172
I1
sS'anger'
p1173
I1
sS'sap'
p1174
I1
sS'pry'
p1175
I1
sS'any'
p1176
I1
sS'jacks'
p1177
I1
sS'sport'
p1178
I1
sS'defaced'
p1179
I0
sS'mourners'
p1180
I1
sS'aside'
p1181
I0
sS'note'
p1182
I1
sS'wretch'
p1183
I1
sS'take'
p1184
I1
sS'resembling'
p1185
I0
sS'wanting'
p1186
I1
sS'strengths'
p1187
I1
sS'blunt'
p1188
I1
sS'becoming'
p1189
I0
sS'flattered'
p1190
I1
sS'urge'
p1191
I1
sS'begin'
p1192
I0
sS'sure'
p1193
I1
sS'pain'
p1194
I1
sS'busy'
p1195
I1
sS'tallies'
p1196
I1
sS'knew'
p1197
I1
sS'clearer'
p1198
I1
sS'paid'
p1199
I1
sS'remover'
p1200
I0
sS'unkindness'
p1201
I0
sS'staineth'
p1202
I0
sS'flatterer'
p1203
I1
sS'tract'
p1204
I1
sS'palate'
p1205
I1
sS'winters'
p1206
I1
sS'spendst'
p1207
I0
sS'garments'
p1208
I1
sS'proud'
p1209
I0
sS'hungry'
p1210
I1
sS'wing'
p1211
I1
sS'sunset'
p1212
I1
sS'amis'
p1213
I1
sS'glutton'
p1214
I1
sS'perfumed'
p1215
I0
sS'sourest'
p1216
I1
sS'buriest'
p1217
I1
sS'shop'
p1218
I1
sS'show'
p1219
I1
sS'cheap'
p1220
I1
sS'merit'
p1221
I1
sS'trespass'
p1222
I1
sS'bright'
p1223
I1
sS'untold'
p1224
I0
sS'ground'
p1225
I1
sS'slow'
p1226
I0
sS'woos'
p1227
I1
sS'unkind'
p1228
I1
sS'stormy'
p1229
I1
sS'title'
p1230
I1
sS'treasure'
p1231
I1
sS'robs'
p1232
I1
sS'behind'
p1233
I0
sS'crime'
p1234
I1
sS'tears'
p1235
I1
sS'lovst'
p1236
I1
sS'black'
p1237
I1
sS'partake'
p1238
I0
sS'stain'
p1239
I1
sS'wilfully'
p1240
I1
sS'consumst'
p1241
I0
sS'hindmost'
p1242
I1
sS'get'
p1243
I1
sS'limbecks'
p1244
I1
sS'truly'
p1245
I1
sS'cannot'
p1246
I0
sS'nearly'
p1247
I1
sS'dye'
p1248
I1
sS'intermixed'
p1249
I1
sS'prime'
p1250
I1
sS'seldom'
p1251
I1
sS'yield'
p1252
I0
sS'morning'
p1253
I1
sS'naked'
p1254
I1
sS'miles'
p1255
I1
sS'where'
p1256
I0
sS'husband'
p1257
I1
sS'monarchs'
p1258
I1
sS'seas'
p1259
I1
sS'committed'
p1260
I0
sS'up'
p1261
I1
sS'famine'
p1262
I1
sS'asleep'
p1263
I0
sS'expiate'
p1264
I1
sS'successive'
p1265
I0
sS'seal'
p1266
I1
sS'salutation'
p1267
I1
sS'ruined'
p1268
I1
sS'purest'
p1269
I1
sS'wonder'
p1270
I1
sS'invoked'
p1271
I0
sS'tongue-tied'
p1272
I1
sS'twixt'
p1273
I0
sS'crooked'
p1274
I1
sS'review'
p1275
I0
sS'amen'
p1276
I0
sS'ornament'
p1277
I1
sS'gainst'
p1278
I1
sS'departest'
p1279
I0
sS'complexion'
p1280
I0
sS'sable'
p1281
I1
sS'import'
p1282
I0
sS'enjoys'
p1283
I0
sS'presage'
p1284
I0
sS'untainted'
p1285
I0
sS'forsake'
p1286
I0
sS'lays'
p1287
I1
sS'needst'
p1288
I1
sS'discloses'
p1289
I1
sS'pluck'
p1290
I1
sS'blame'
p1291
I1
sS'countenance'
p1292
I1
sS'reigns'
p1293
I0
sS'profitless'
p1294
I0
sS'come'
p1295
I1
sS'grieved'
p1296
I0
sS'dates'
p1297
I1
sS'mans'
p1298
I0
sS'many'
p1299
I1
sS'region'
p1300
I1
sS'quiet'
p1301
I0
sS'dwellers'
p1302
I0
sS'awards'
p1303
I0
sS'comes'
p1304
I1
sS'duty'
p1305
I0
sS'among'
p1306
I0
sS'unthrifts'
p1307
I1
sS'madness'
p1308
I1
sS'spoil'
p1309
I1
sS'unthrifty'
p1310
I0
sS'lace'
p1311
I1
sS'swerving'
p1312
I1
sS'dispatch'
p1313
I0
sS'slain'
p1314
I0
sS'stretched'
p1315
I1
sS'learning'
p1316
I1
sS'proved'
p1317
I1
sS'hounds'
p1318
I1
sS'boat'
p1319
I1
sS'doctor-like'
p1320
I1
sS'arts'
p1321
I1
sS'lifes'
p1322
I0
sS'self-doing'
p1323
I0
sS'west'
p1324
I0
sS'dross'
p1325
I1
sS'mark'
p1326
I1
sS'breath'
p1327
I1
sS'subscribes'
p1328
I0
sS'mars'
p1329
I1
sS'informer'
p1330
I0
sS'straying'
p1331
I1
sS'robbed'
p1332
I0
sS'thousand'
p1333
I1
sS'blessing'
p1334
I1
sS'nobler'
p1335
I1
sS'deservst'
p1336
I0
sS'external'
p1337
I0
sS'frantic-mad'
p1338
I1
sS'masonry'
p1339
I1
sS'careful'
p1340
I1
sS'deceivest'
p1341
I0
sS'those'
p1342
I0
sS'case'
p1343
I1
sS'profane'
p1344
I0
sS'scarlet'
p1345
I1
sS'these'
p1346
I0
sS'sheaves'
p1347
I1
sS'compile'
p1348
I0
sS'cast'
p1349
I1
sS'proves'
p1350
I1
sS'cancelled'
p1351
I1
sS'situation'
p1352
I1
sS'endured'
p1353
I0
sS'fool'
p1354
I0
sS'oerworn'
p1355
I1
sS'endowed'
p1356
I0
sS'brow'
p1357
I1
sS'whoeer'
p1358
I0
sS'gluttoning'
p1359
I1
sS'middle'
p1360
I1
sS'limping'
p1361
I1
sS'return'
p1362
I0
sS'fame'
p1363
I1
sS'different'
p1364
I1
sS'harsh'
p1365
I0
sS'strains'
p1366
I1
sS'pay'
p1367
I1
sS'same'
p1368
I1
sS'check'
p1369
I1
sS'shifts'
p1370
I0
sS'distilled'
p1371
I0
sS'figures'
p1372
I1
sS'ladies'
p1373
I1
sS'prayers'
p1374
I1
sS'wires'
p1375
I1
sS'faculty'
p1376
I1
sS'sickness'
p1377
I1
sS'tyrannous'
p1378
I1
sS'defy'
p1379
I0
sS'weed'
p1380
I1
sS'fruit'
p1381
I1
sS'scorned'
p1382
I1
sS'conquered'
p1383
I1
sS'extern'
p1384
I0
sS'changing'
p1385
I1
sS'weep'
p1386
I1
sS'vowed'
p1387
I1
sS'vantage'
p1388
I1
sS'slanders'
p1389
I1
sS'dear-purchased'
p1390
I1
sS'mortgaged'
p1391
I1
sS'random'
p1392
I1
sS'vacant'
p1393
I1
sS'without'
p1394
I0
sS'relief'
p1395
I1
sS'charged'
p1396
I0
sS'distills'
p1397
I0
sS'summer'
p1398
I1
sS'ransoms'
p1399
I1
sS'being'
p1400
I1
sS'when'
p1401
I0
sS'compound'
p1402
I1
sS'shamefully'
p1403
I0
sS'rest'
p1404
I1
sS'imprint'
p1405
I0
sS'bareness'
p1406
I1
sS'cease'
p1407
I1
sS'disperse'
p1408
I0
sS'aspect'
p1409
I0
sS'touch'
p1410
I1
sS'speed'
p1411
I0
sS'guides'
p1412
I1
sS'afterwards'
p1413
I1
sS'blow'
p1414
I1
sS'blot'
p1415
I0
sS'unwooed'
p1416
I0
sS'womans'
p1417
I1
sS'thinking'
p1418
I1
sS'rose'
p1419
I1
sS'seems'
p1420
I0
sS'except'
p1421
I0
sS'verse'
p1422
I1
sS'suppressed'
p1423
I0
sS'worthier'
p1424
I1
sS'throw'
p1425
I1
sS'dully'
p1426
I1
sS'bond'
p1427
I1
sS'valley-fountain'
p1428
I1
sS'struck'
p1429
I1
sS'kingdom'
p1430
I1
sS'frown'
p1431
I1
sS'kills'
p1432
I1
sS'read'
p1433
I1
sS'offence'
p1434
I0
sS'sums'
p1435
I1
sS'dart'
p1436
I1
sS'basest'
p1437
I1
sS'traffic'
p1438
I1
sS'confined'
p1439
I0
sS'world'
p1440
I1
sS'reap'
p1441
I1
sS'dare'
p1442
I1
sS'acquainted'
p1443
I0
sS'fortune'
p1444
I0
sS'achieve'
p1445
I0
sS'eithers'
p1446
I1
sS'miracle'
p1447
I1
sS'benefit'
p1448
I1
sS'either'
p1449
I0
sS'robbery'
p1450
I0
sS'offenders'
p1451
I0
sS'warrantise'
p1452
I1
sS'tombed'
p1453
I1
sS'fulfil'
p1454
I0
sS'falsehood'
p1455
I1
sS'kings'
p1456
I1
sS'images'
p1457
I1
sS'perceivst'
p1458
I0
sS'divine'
p1459
I0
sS'thinks'
p1460
I1
sS'gross'
p1461
I1
sS'courses'
p1462
I0
sS'noon'
p1463
I1
sS'lend'
p1464
I1
sS'stops'
p1465
I1
sS'moon'
p1466
I1
sS'forgoing'
p1467
I0
sS'expressing'
p1468
I0
sS'self-loving'
p1469
I0
sS'knife'
p1470
I1
sS'destroys'
p1471
I0
sS'shorn'
p1472
I1
sS'power'
p1473
I1
sS'seconds'
p1474
I1
sS'blest'
p1475
I1
sS'strained'
p1476
I1
sS'olives'
p1477
I0
sS'forgetfulness'
p1478
I0
sS'broken'
p1479
I1
sS'assemble'
p1480
I0
sS'feeds'
p1481
I1
sS'death-bed'
p1482
I0
sS'on'
p1483
I1
sS'stone'
p1484
I1
sS'subdued'
p1485
I0
sS'zealous'
p1486
I1
sS'of'
p1487
I0
sS'choirs'
p1488
I0
sS'feil'
p1489
I0
sS'whence'
p1490
I0
sS'fell'
p1491
I1
sS'wolf'
p1492
I1
sS'stand'
p1493
I1
sS'act'
p1494
I1
sS'mixed'
p1495
I1
sS'lofty'
p1496
I1
sS'or'
p1497
I0
sS'imitated'
p1498
I1
sS'widowed'
p1499
I1
sS'long-lived'
p1500
I1
sS'burning'
p1501
I1
sS'anothers'
p1502
I0
sS'image'
p1503
I1
sS'blessed'
p1504
I1
sS'rising'
p1505
I1
sS'lively'
p1506
I1
sS'dreaming'
p1507
I0
sS'blesses'
p1508
I0
sS'your'
p1509
I0
sS'buds'
p1510
I1
sS'fast'
p1511
I1
sS'prepare'
p1512
I0
sS'hes'
p1513
I0
sS'there'
p1514
I1
sS'disposed'
p1515
I0
sS'sides'
p1516
I0
sS'stealth'
p1517
I0
sS'lions'
p1518
I1
sS'low'
p1519
I0
sS'stars'
p1520
I1
sS'jaws'
p1521
I1
sS'groan'
p1522
I1
sS'enough'
p1523
I0
sS'petty'
p1524
I1
sS'strikes'
p1525
I0
sS'meetness'
p1526
I1
sS'suffers'
p1527
I1
sS'brain'
p1528
I1
sS'makst'
p1529
I1
sS'growst'
p1530
I1
sS'with'
p1531
I0
sS'faster'
p1532
I0
sS'abused'
p1533
I0
sS'applying'
p1534
I0
sS'rage'
p1535
I1
sS'niggarding'
p1536
I1
sS'self-same'
p1537
I1
sS'impute'
p1538
I0
sS'abuses'
p1539
I0
sS'strongly'
p1540
I1
sS'gone'
p1541
I0
sS'intents'
p1542
I0
sS'celestial'
p1543
I0
sS'fist'
p1544
I1
sS'taste'
p1545
I1
sS'ah'
p1546
I1
sS'accents'
p1547
I1
sS'stealing'
p1548
I0
sS'am'
p1549
I0
sS'deep'
p1550
I0
sS'an'
p1551
I0
sS'toiled'
p1552
I1
sS'excusing'
p1553
I0
sS'deem'
p1554
I1
sS'carved'
p1555
I1
sS'pen'
p1556
I1
sS'ay'
p1557
I0
sS'spends'
p1558
I0
sS'fill'
p1559
I1
sS'again'
p1560
I0
sS'proudly'
p1561
I1
sS'deserve'
p1562
I0
sS'ever-fixed'
p1563
I0
sS'green'
p1564
I1
sS'repent'
p1565
I0
sS'incertainties'
p1566
I0
sS'roses'
p1567
I0
sS'dians'
p1568
I1
sS'you'
p1569
I1
sS'abysm'
p1570
I0
sS'poor'
p1571
I0
sS'oerlook'
p1572
I0
sS'time'
p1573
I1
sS'gifts'
p1574
I0
sS'flower'
p1575
I1
sS'suited'
p1576
I1
sS'brass'
p1577
I1
sS'sequent'
p1578
I1
sS'building'
p1579
I1
sS'backward'
p1580
I1
sS'remote'
p1581
I0
sS'calls'
p1582
I0
sS'wife'
p1583
I1
sS'dyed'
p1584
I1
sS'repay'
p1585
I0
sS'hugely'
p1586
I1
sS'treason'
p1587
I0
sS'apparel'
p1588
I0
sS'wake'
p1589
I1
sS'tanned'
p1590
I1
sS'unset'
p1591
I0
sS'all'
p1592
I1
sS'consider'
p1593
I0
sS'pointing'
p1594
I0
sS'suns'
p1595
I0
sS'forbidden'
p1596
I0
sS'lack'
p1597
I1
sS'neigh'
p1598
I1
sS'bosoms'
p1599
I1
sS'importune'
p1600
I0
sS'seals'
p1601
I1
sS'sunk'
p1602
I1
sS'forged'
p1603
I1
sS'deformedst'
p1604
I0
sS'welfare'
p1605
I1
sS'follow'
p1606
I1
sS'meditation'
p1607
I1
sS'religious'
p1608
I0
sS'children'
p1609
I1
sS'preventst'
p1610
I0
sS'wanton'
p1611
I1
sS'homage'
p1612
I1
sS'sparkling'
p1613
I1
sS'perfectst'
p1614
I1
sS'to'
p1615
I0
sS'present'
p1616
I1
sS'th'
p1617
I0
sS'dressing'
p1618
I1
sS'nurseth'
p1619
I1
sS'hideous'
p1620
I1
sS'weeks'
p1621
I1
sS'paying'
p1622
I1
sS'woman'
p1623
I0
sS'returned'
p1624
I0
sS'song'
p1625
I1
sS'very'
p1626
I1
sS'coloured'
p1627
I0
sS'oblation'
p1628
I0
sS'medicine'
p1629
I1
sS'worst'
p1630
I1
sS'minded'
p1631
I1
sS'fall'
p1632
I1
sS'hems'
p1633
I1
sS'difference'
p1634
I1
sS'vouchsafe'
p1635
I0
sS'heaven'
p1636
I1
sS'mothers'
p1637
I1
sS'list'
p1638
I1
sS'silvered'
p1639
I1
sS'fearful'
p1640
I1
sS'small'
p1641
I0
sS'tender'
p1642
I1
sS'quicker'
p1643
I1
sS'ten'
p1644
I1
sS'outworn'
p1645
I0
sS'past'
p1646
I0
sS'bestowst'
p1647
I0
sS'invention'
p1648
I0
sS'perspective'
p1649
I1
sS'pass'
p1650
I1
sS'savage'
p1651
I0
sS'affable'
p1652
I1
sS'befriends'
p1653
I0
sS'crests'
p1654
I1
sS'creatures'
p1655
I1
sS'conscience'
p1656
I0
sS'gazers'
p1657
I1
sS'what'
p1658
I0
sS'defence'
p1659
I0
sS'darkness'
p1660
I1
sS'sweetly'
p1661
I1
sS'clock'
p1662
I0
sS'sun'
p1663
I1
sS'sum'
p1664
I1
sS'brief'
p1665
I1
sS'prevailed'
p1666
I0
sS'foison'
p1667
I1
sS'ill-wresting'
p1668
I0
sS'nurse'
p1669
I1
sS'shun'
p1670
I1
sS'public'
p1671
I1
sS'womb'
p1672
I1
sS'quenched'
p1673
I1
sS'full'
p1674
I1
sS'ranged'
p1675
I1
sS'love-suit'
p1676
I1
sS'answers'
p1677
I1
sS'revenge'
p1678
I0
sS'hours'
p1679
I1
sS'dregs'
p1680
I1
sS'excess'
p1681
I0
sS'hast'
p1682
I1
sS'depend'
p1683
I1
sS'strong'
p1684
I1
sS'respect'
p1685
I1
sS'enmity'
p1686
I1
sS'losses'
p1687
I1
sS'dearths'
p1688
I1
sS'reason'
p1689
I0
sS'simply'
p1690
I0
sS'action'
p1691
I1
sS'steepy'
p1692
I1
sS'extant'
p1693
I0
sS'depart'
p1694
I0
sS'impiety'
p1695
I0
sS'tendered'
p1696
I1
sS'sealed'
p1697
I1
sS'estimate'
p1698
I1
sS'unthrift'
p1699
I1
sS'self-love'
p1700
I0
sS'eye'
p1701
I1
sS'takes'
p1702
I1
sS'cherubins'
p1703
I1
sS'contains'
p1704
I0
sS'two'
p1705
I1
sS'pearl'
p1706
I1
sS'morn'
p1707
I1
sS'soil'
p1708
I1
sS'taken'
p1709
I1
sS'injury'
p1710
I1
sS'more'
p1711
I0
sS'horses'
p1712
I1
sS'wretched'
p1713
I1
sS'unlearned'
p1714
I0
sS'knows'
p1715
I0
sS'foregone'
p1716
I0
sS'spoils'
p1717
I1
sS'excuse'
p1718
I0
sS'lameness'
p1719
I1
sS'controlling'
p1720
I0
sS'broke'
p1721
I1
sS'graven'
p1722
I1
sS'known'
p1723
I1
sS'doom'
p1724
I0
sS'glad'
p1725
I0
sS'cunning'
p1726
I1
sS'commanded'
p1727
I0
sS'over-goes'
p1728
I1
sS'none'
p1729
I1
sS'hour'
p1730
I1
sS'besides'
p1731
I0
sS'remain'
p1732
I0
sS'nine'
p1733
I1
sS'learn'
p1734
I1
sS'marble'
p1735
I1
sS'history'
p1736
I1
sS'beautiful'
p1737
I1
sS'compare'
p1738
I0
sS'needing'
p1739
I1
sS'visage'
p1740
I1
sS'trial'
p1741
I1
sS'share'
p1742
I1
sS'conspire'
p1743
I0
sS'thievish'
p1744
I1
sS'well-seeing'
p1745
I0
sS'numbers'
p1746
I1
sS'well-tuned'
p1747
I0
sS'sharp'
p1748
I1
sS'allege'
p1749
I0
sS'huge'
p1750
I0
sS'needs'
p1751
I1
sS'drained'
p1752
I1
sS'needy'
p1753
I1
sS'comfort'
p1754
I1
sS'chopt'
p1755
I1
sS'glowing'
p1756
I1
sS'sacred'
p1757
I1
sS'new-fangled'
p1758
I0
sS'creature'
p1759
I0
sS'simplicity'
p1760
I0
sS'rude'
p1761
I0
sS'disgraced'
p1762
I0
sS'mended'
p1763
I0
sS'blood'
p1764
I1
sS'coming'
p1765
I1
sS'monsters'
p1766
I1
sS'replete'
p1767
I0
sS'a'
p1768
I1
sS'refuse'
p1769
I1
sS'short'
p1770
I1
sS'resemble'
p1771
I0
sS'loud'
p1772
I0
sS'shady'
p1773
I0
sS'register'
p1774
I1
sS'shore'
p1775
I1
sS'shade'
p1776
I1
sS'perjured'
p1777
I1
sS'banks'
p1778
I1
sS'pleasure'
p1779
I1
sS'penury'
p1780
I1
sS'dream'
p1781
I1
sS'recite'
p1782
I0
sS'help'
p1783
I1
sS'winged'
p1784
I1
sS'stays'
p1785
I1
sS'soon'
p1786
I1
sS'disabled'
p1787
I0
sS'held'
p1788
I1
sS'paper'
p1789
I0
sS'through'
p1790
I0
sS'signs'
p1791
I1
sS'hell'
p1792
I1
sS'smiling'
p1793
I1
sS'suffer'
p1794
I1
sS'saucy'
p1795
I1
sS'style'
p1796
I1
sS'pent'
p1797
I0
sS'render'
p1798
I0
sS'termed'
p1799
I1
sS'pray'
p1800
I1
sS'inward'
p1801
I1
sS'deeds'
p1802
I1
sS'bosom'
p1803
I1
sS'teeming'
p1804
I1
sS'famished'
p1805
I1
sS'late'
p1806
I1
sS'resort'
p1807
I1
sS'absence'
p1808
I1
sS'strange'
p1809
I0
sS'threescore'
p1810
I1
sS'ruining'
p1811
I1
sS'self-willed'
p1812
I0
sS'might'
p1813
I1
sS'alter'
p1814
I1
sS'crawls'
p1815
I0
sS'forbear'
p1816
I0
sS'good'
p1817
I1
sS'tyrants'
p1818
I1
sS'kingly'
p1819
I1
sS'seeking'
p1820
I0
sS'food'
p1821
I1
sS'ye'
p1822
I0
sS'storm-beaten'
p1823
I0
sS'speechless'
p1824
I1
sS'walls'
p1825
I1
sS'nymphs'
p1826
I1
sS'thereof'
p1827
I0
sS'weeds'
p1828
I1
sS'foot'
p1829
I1
sS'hunted'
p1830
I1
sS'breathers'
p1831
I1
sS'complain'
p1832
I0
sS'likeness'
p1833
I1
sS'imprisoned'
p1834
I1
sS'thence'
p1835
I1
sS'truths'
p1836
I1
sS'eloquence'
p1837
I1
sS'tear'
p1838
I1
sS'stopped'
p1839
I0
sS'turns'
p1840
I1
sS'found'
p1841
I1
sS'heavy'
p1842
I1
sS'weighs'
p1843
I0
sS'proud-pied'
p1844
I1
sS'bends'
p1845
I1
sS'weight'
p1846
I1
sS'house'
p1847
I1
sS'hard'
p1848
I1
sS'oppressed'
p1849
I0
sS'surly'
p1850
I1
sS'beyond'
p1851
I0
sS'orient'
p1852
I1
sS'travels'
p1853
I1
sS'lovers'
p1854
I1
sS'missed'
p1855
I1
sS'since'
p1856
I0
sS'publish'
p1857
I1
sS'admired'
p1858
I0
sS'health'
p1859
I0
sS'hill'
p1860
I0
sS'sweetst'
p1861
I1
sS'print'
p1862
I0
sS'darling'
p1863
I0
sS'issue'
p1864
I1
sS'sympathized'
p1865
I1
sS'stewards'
p1866
I1
sS'boldness'
p1867
I1
sS'sharpst'
p1868
I1
sS'belied'
p1869
I0
sS'commits'
p1870
I0
sS'fore-bemoaned'
p1871
I1
sS'forgive'
p1872
I1
sS'pleasant'
p1873
I1
sS'qualify'
p1874
I1
sS'base'
p1875
I0
sS'impeached'
p1876
I0
sS'put'
p1877
I0
sS'teach'
p1878
I1
sS'reproach'
p1879
I0
sS'beast'
p1880
I1
sS'owners'
p1881
I1
sS'service'
p1882
I1
sS'attainted'
p1883
I0
sS'noted'
p1884
I1
sS'sicken'
p1885
I1
sS'pure'
p1886
I0
sS'twenty'
p1887
I1
sS'corrupting'
p1888
I0
sS'feed'
p1889
I1
sS'hawks'
p1890
I1
sS'gazed'
p1891
I1
sS'seeming'
p1892
I1
sS'forwards'
p1893
I1
sS'blush'
p1894
I1
sS'feel'
p1895
I1
sS'number'
p1896
I1
sS'antiquity'
p1897
I0
sS'elder'
p1898
I1
sS'enlarged'
p1899
I0
sS'revolution'
p1900
I1
sS'done'
p1901
I1
sS'defects'
p1902
I0
sS'dreading'
p1903
I0
sS'slept'
p1904
I1
sS'rents'
p1905
I1
sS'moan'
p1906
I1
sS'horse'
p1907
I1
sS'guest'
p1908
I1
sS'rondure'
p1909
I1
sS'together'
p1910
I0
sS'slanderers'
p1911
I1
sS'least'
p1912
I1
sS'hallowed'
p1913
I0
sS'shamed'
p1914
I1
sS'passed'
p1915
I1
sS'essays'
p1916
I0
sS'hundred'
p1917
I0
sS'store'
p1918
I1
sS'lease'
p1919
I1
sS'youngly'
p1920
I1
sS'selling'
p1921
I1
sS'imperfect'
p1922
I0
sS'saint'
p1923
I1
sS'longing'
p1924
I1
sS'adonis'
p1925
I0
sS'part'
p1926
I0
sS'bower'
p1927
I1
sS'believe'
p1928
I1
sS'grace'
p1929
I1
sS'king'
p1930
I1
sS'kind'
p1931
I1
sS'grew'
p1932
I1
sS'mortality'
p1933
I0
sS'vial'
p1934
I1
sS'double'
p1935
I1
sS'anticipate'
p1936
I1
sS'grey'
p1937
I1
sS'shallowest'
p1938
I1
sS'youth'
p1939
I1
sS'autumn'
p1940
I0
sS'determined'
p1941
I0
sS'contrary'
p1942
I1
sS'supposed'
p1943
I0
sS'toward'
p1944
I1
sS'restful'
p1945
I1
sS'afar'
p1946
I0
sS'tongues'
p1947
I0
sS'trifles'
p1948
I1
sS'ages'
p1949
I1
sS'defect'
p1950
I0
sS'livery'
p1951
I1
sS'new-fired'
p1952
I0
sS'alike'
p1953
I0
sS'showers'
p1954
I1
sS'travail'
p1955
I1
sS'fading'
p1956
I1
sS'sensual'
p1957
I1
sS'sell'
p1958
I1
sS'mountain'
p1959
I1
sS'nights'
p1960
I1
sS'built'
p1961
I0
sS'dancing'
p1962
I1
sS'self'
p1963
I0
sS'onset'
p1964
I1
sS'lifts'
p1965
I0
sS'lip'
p1966
I1
sS'finding'
p1967
I0
sS'drinks'
p1968
I1
sS'chary'
p1969
I1
sS'play'
p1970
I1
sS'towards'
p1971
I1
sS'reckon'
p1972
I1
sS'drowns'
p1973
I1
sS'unused'
p1974
I0
sS'most'
p1975
I1
sS'blunting'
p1976
I1
sS'amazeth'
p1977
I0
sS'nothing'
p1978
I1
sS'seasons'
p1979
I1
sS'wastes'
p1980
I0
sS'measured'
p1981
I1
sS'stands'
p1982
I0
sS'chronicle'
p1983
I1
sS'feasting'
p1984
I1
sS'windows'
p1985
I1
sS'builded'
p1986
I0
sS'clear'
p1987
I1
sS'sometimes'
p1988
I1
sS'cover'
p1989
I1
sS'unbred'
p1990
I0
sS'reeleth'
p1991
I1
sS'barren'
p1992
I1
sS'convertest'
p1993
I0
sS'eisel'
p1994
I1
sS'compounds'
p1995
I1
sS'lying'
p1996
I1
sS'stones'
p1997
I1
sS'self-substantial'
p1998
I1
sS'despise'
p1999
I0
sS'gold'
p2000
I0
sS'gates'
p2001
I1
sS'wailing'
p2002
I1
sS'fond'
p2003
I0
sS'bending'
p2004
I1
sS'rhymers'
p2005
I1
sS'wasted'
p2006
I1
sS'registers'
p2007
I1
sS'heavens'
p2008
I0
sS'fine'
p2009
I0
sS'find'
p2010
I1
sS'viewest'
p2011
I1
sS'sportive'
p2012
I1
sS'gilded'
p2013
I1
sS'flattery'
p2014
I1
sS'shouldst'
p2015
I0
sS'deserts'
p2016
I0
sS'ruin'
p2017
I0
sS'less'
p2018
I1
sS'waiting'
p2019
I1
sS'vision'
p2020
I1
sS'betray'
p2021
I1
sS'beauteous'
p2022
I1
sS'fiend'
p2023
I1
sS'niggard'
p2024
I1
sS'dust'
p2025
I1
sS'gains'
p2026
I1
sS'compiled'
p2027
I0
sS'express'
p2028
I0
sS'impregnable'
p2029
I0
sS'trees'
p2030
I1
sS'playst'
p2031
I1
sS'remedy'
p2032
I0
sS'hid'
p2033
I1
sS'breast'
p2034
I1
sS'compass'
p2035
I1
sS'swart-complexioned'
p2036
I1
sS'sepulchres'
p2037
I1
sS'him'
p2038
I1
sS'distraction'
p2039
I0
sS'grievances'
p2040
I1
sS'pleasures'
p2041
I1
sS'cry'
p2042
I1
sS'impanelled'
p2043
I0
sS'remove'
p2044
I0
sS'augurs'
p2045
I1
sS'common'
p2046
I1
sS'kill'
p2047
I0
sS'poisoned'
p2048
I1
sS'wrongfully'
p2049
I1
sS'bars'
p2050
I1
sS'set'
p2051
I1
sS'art'
p2052
I0
sS'declines'
p2053
I1
sS'jade'
p2054
I1
sS'see'
p2055
I1
sS'bare'
p2056
I1
sS'are'
p2057
I0
sS'sea'
p2058
I1
sS'presenteth'
p2059
I0
sS'bark'
p2060
I0
sS'outward'
p2061
I1
sS'spirits'
p2062
I1
sS'fleetst'
p2063
I1
sS'forlorn'
p2064
I1
sS'please'
p2065
I0
sS'drooping'
p2066
I1
sS'unions'
p2067
I1
sS'won'
p2068
I1
sS'gentlest'
p2069
I1
sS'affairs'
p2070
I0
sS'woe'
p2071
I1
sS'guilt'
p2072
I0
sS'rite'
p2073
I1
sS'tibey'
p2074
I0
sS'thrive'
p2075
I1
sS'endure'
p2076
I0
sS'knowing'
p2077
I0
sS'creating'
p2078
I0
sS'sold'
p2079
I0
sS'sole'
p2080
I1
sS'vanishing'
p2081
I1
sS'death'
p2082
I1
sS'alters'
p2083
I1
sS'both'
p2084
I0
sS'last'
p2085
I0
sS'grounded'
p2086
I0
sS'desired'
p2087
I0
sS'thou'
p2088
I1
sS'anon'
p2089
I0
sS'forgotten'
p2090
I0
sS'poverty'
p2091
I1
sS'possesseth'
p2092
I0
sS'approve'
p2093
I1
sS'finds'
p2094
I1
sS'usest'
p2095
I1
sS'flies'
p2096
I1
sS'majesty'
p2097
I1
sS'point'
p2098
I1
sS'reasons'
p2099
I1
sS'sweet'
p2100
I1
sS'loan'
p2101
I1
sS'manners'
p2102
I1
sS'liker'
p2103
I1
sS'worthless'
p2104
I1
sS'devil'
p2105
I1
sS'unworthiness'
p2106
I0
sS'dun'
p2107
I1
sS'arrest'
p2108
I0
sS'stamp'
p2109
I0
sS'devouring'
p2110
I0
sS'acceptance'
p2111
I1
sS'satire'
p2112
I1
sS'due'
p2113
I1
sS'whos'
p2114
I1
sS'whom'
p2115
I1
sS'secret'
p2116
I1
sS'beautys'
p2117
I0
sS'wait'
p2118
I1
sS'delights'
p2119
I0
sS'rosy'
p2120
I1
sS'firm'
p2121
I0
sS'lived'
p2122
I1
sS'partly'
p2123
I1
sS'gay'
p2124
I1
sS'fire'
p2125
I1
sS'overthrow'
p2126
I1
sS'convert'
p2127
I0
sS'else'
p2128
I1
sS'lives'
p2129
I0
sS'receive'
p2130
I0
sS'mournful'
p2131
I1
sS'plants'
p2132
I1
sS'utmost'
p2133
I1
sS'look'
p2134
I1
sS'straight'
p2135
I1
sS'admire'
p2136
I0
sS'pace'
p2137
I0
sS'while'
p2138
I0
sS'rigour'
p2139
I1
sS'error'
p2140
I1
sS'kissing'
p2141
I0
sS'eclipses'
p2142
I0
sS'huswife'
p2143
I1
sS'theres'
p2144
I0
sS'costly'
p2145
I1
sS'odour'
p2146
I0
sS'herein'
p2147
I0
sS'confound'
p2148
I1
sS'vow'
p2149
I0
sS'unperfect'
p2150
I0
sS'owes'
p2151
I1
sS'seen'
p2152
I0
sS'rid'
p2153
I1
sS'seest'
p2154
I1
sS'fairer'
p2155
I1
sS'chase'
p2156
I0
sS'twofold'
p2157
I1
sS'grant'
p2158
I1
sS'lengths'
p2159
I1
sS'bristly'
p2160
I1
sS'belong'
p2161
I0
sS'engrossed'
p2162
I0
sS'wherein'
p2163
I0
sS'discourse'
p2164
I0
sS'esteemed'
p2165
I0
sS'ruth'
p2166
I1
sS'composition'
p2167
I1
sS'oer-snowed'
p2168
I0
sS'covetous'
p2169
I1
sS'used'
p2170
I1
sS'lie'
p2171
I1
sS'mow'
p2172
I1
sS'husbands'
p2173
I1
sS'moment'
p2174
I1
sS'moving'
p2175
I1
sS'purpose'
p2176
I1
sS'wretchcd'
p2177
I1
sS'early'
p2178
I0
sS'task'
p2179
I1
sS'older'
p2180
I1
sS'accumulate'
p2181
I0
sS'cheek'
p2182
I1
sS'loathsome'
p2183
I1
sS'grind'
p2184
I1
sS'morrow'
p2185
I1
sS'cheer'
p2186
I1
sS'edge'
p2187
I0
sS'starved'
p2188
I1
sS'toil'
p2189
I1
sS'stelled'
p2190
I1
sS'spend'
p2191
I0
sS'plagues'
p2192
I1
sS'presume'
p2193
I0
sS'judgments'
p2194
I1
sS'salve'
p2195
I1
sS'shape'
p2196
I0
sS'injuries'
p2197
I1
sS'unto'
p2198
I0
sS'gems'
p2199
I1
sS'tables'
p2200
I1
sS'cut'
p2201
I1
sS'cup'
p2202
I1
sS'hated'
p2203
I1
sS'decayed'
p2204
I0
sS'chest'
p2205
I1
sS'hues'
p2206
I1
sS'crying'
p2207
I1
sS'hates'
p2208
I0
sS'march'
p2209
I1
sS'lacking'
p2210
I1
sS'big'
p2211
I1
sS'bid'
p2212
I1
sS'advocate'
p2213
I1
sS'judgement'
p2214
I0
sS'redeem'
p2215
I0
sS'quest'
p2216
I1
sS'messengers'
p2217
I1
sS'dearly'
p2218
I1
sS'necessary'
p2219
I1
sS'sharpened'
p2220
I1
sS'outright'
p2221
I0
sS'inviting'
p2222
I1
sS'follows'
p2223
I1
sS'strife'
p2224
I1
sS'shapes'
p2225
I1
sS'translated'
p2226
I0
sS'tribes'
p2227
I1
sS'foolish'
p2228
I1
sS'canst'
p2229
I0
sS'often'
p2230
I1
sS'wombs'
p2231
I1
sS'spring'
p2232
I1
sS'creation'
p2233
I1
sS'some'
p2234
I1
sS'back'
p2235
I1
sS'sighs'
p2236
I1
sS'lips'
p2237
I0
sS'added'
p2238
I1
sS'sight'
p2239
I1
sS'curious'
p2240
I0
sS'pale'
p2241
I1
sS'sauces'
p2242
I1
sS'delivered'
p2243
I0
sS'acquaintance'
p2244
I0
sS'fairing'
p2245
I0
sS'shall'
p2246
I1
sS'oblivion'
p2247
I0
sS'balmy'
p2248
I1
sS'kind-hearted'
p2249
I0
sS'barrenly'
p2250
I0
sS'bearst'
p2251
I0
sS'lark'
p2252
I1
sS'worship'
p2253
I1
sS't'
p2254
I0
sS'be'
p2255
I1
sS'run'
p2256
I0
sS'remembered'
p2257
I0
sS'oer'
p2258
I0
sS'clay'
p2259
I1
sS'fed'
p2260
I1
sS'aloft'
p2261
I0
sS'rent'
p2262
I0
sS'fee'
p2263
I1
sS'concealed'
p2264
I0
sS'become'
p2265
I0
sS'by'
p2266
I0
sS'shine'
p2267
I0
sS'faith'
p2268
I1
sS'deserved'
p2269
I0
sS'wrinkles'
p2270
I1
sS'deserves'
p2271
I0
sS'ambush'
p2272
I1
sS'felt'
p2273
I1
sS'hatred'
p2274
I0
sS'womens'
p2275
I1
sS'tenants'
p2276
I1
sS'youthful'
p2277
I1
sS'misplaced'
p2278
I1
sS'repair'
p2279
I0
sS'conquest'
p2280
I1
sS'within'
p2281
I0
sS'warmed'
p2282
I1
sS'debateth'
p2283
I0
sS'services'
p2284
I1
sS'because'
p2285
I0
sS'remembrance'
p2286
I0
sS'lesson'
p2287
I1
sS'story'
p2288
I1
sS'featureless'
p2289
I1
sS'spending'
p2290
I0
sS'question'
p2291
I1
sS'chide'
p2292
I0
sS'whereto'
p2293
I0
sS'slandering'
p2294
I0
sS'suit'
p2295
I1
sS'translate'
p2296
I0
sS'himself'
p2297
I0
sS'arise'
p2298
I0
sS'elsewhere'
p2299
I0
sS'governs'
p2300
I1
sS'graciously'
p2301
I1
sS'healthful'
p2302
I0
sS'frost'
p2303
I1
sS'vowing'
p2304
I1
sS'authority'
p2305
I0
sS'newer'
p2306
I1
sS'filed'
p2307
I1
sS'hopes'
p2308
I1
sS'line'
p2309
I1
sS'dull'
p2310
I1
sS'usury'
p2311
I1
sS'directed'
p2312
I0
sS'bevel'
p2313
I1
sS'immured'
p2314
I0
sS'sullied'
p2315
I1
sS'us'
p2316
I0
sS'lords'
p2317
I1
sS'maturity'
p2318
I0
sS'slander'
p2319
I1
sS'called'
p2320
I1
sS'vassalage'
p2321
I1
sS'bell'
p2322
I1
sS'sort'
p2323
I0
sS'constant'
p2324
I1
sS'bind'
p2325
I1
sS'goodly'
p2326
I1
sS'allayed'
p2327
I1
sS'influence'
p2328
I1
sS'rarities'
p2329
I1
sS'single'
p2330
I1
sS'mightier'
p2331
I0
sS'assailed'
p2332
I1
sS'surmise'
p2333
I0
sS'rainy'
p2334
I1
sS'sullen'
p2335
I1
sS'sunken'
p2336
I1
sS'impediments'
p2337
I0
sS'peace'
p2338
I1
sS'fears'
p2339
I1
sS'dimmed'
p2340
I1
sS'afford'
p2341
I0
sS'gavst'
p2342
I1
sS'becomes'
p2343
I0
sS'nay'
p2344
I0
sS'mock'
p2345
I1
sS'perusal'
p2346
I0
sS'draw'
p2347
I1
sS'elements'
p2348
I1
sS'clean'
p2349
I0
sS'besiege'
p2350
I0
sS'breasts'
p2351
I1
sS'rise'
p2352
I1
sS'weigh'
p2353
I1
sS'makeless'
p2354
I1
sS'wrinkle'
p2355
I1
sS'desert'
p2356
I1
sS'land'
p2357
I1
sS'happier'
p2358
I1
sS'happies'
p2359
I1
sS'vice'
p2360
I1
sS'age'
p2361
I1
sS'wards'
p2362
I1
sS'admiring'
p2363
I1
sS'heats'
p2364
I0
sS'came'
p2365
I0
sS'far'
p2366
I1
sS'fresh'
p2367
I0
sS'marvel'
p2368
I0
sS'having'
p2369
I0
sS'once'
p2370
I1
sS'wilfulness'
p2371
I1
sS'discontent'
p2372
I1
sS'highmost'
p2373
I1
sS'tombs'
p2374
I1
sS'alien'
p2375
I0
sS'windy'
p2376
I1
sS'special-blest'
p2377
I1
sS'go'
p2378
I0
sS'ruminate'
p2379
I1
sS'seemed'
p2380
I1
sS'graves'
p2381
I0
sS'tincture'
p2382
I0
sS'uphold'
p2383
I1
sS'reckoned'
p2384
I1
sS'young'
p2385
I1
sS'send'
p2386
I1
sS'debarred'
p2387
I0
sS'pleasing'
p2388
I1
sS'virtuous'
p2389
I1
sS'over-partial'
p2390
I1
sS'queen'
p2391
I0
sS'wished'
p2392
I1
sS'torture'
p2393
I1
sS'confounding'
p2394
I0
sS'rhyme'
p2395
I1
sS'rebuked'
p2396
I0
sS'scanted'
p2397
I1
sS'accuse'
p2398
I1
sS'telling'
p2399
I1
sS'false-speaking'
p2400
I0
sS'iniquity'
p2401
I0
sS'bonds'
p2402
I1
sS'try'
p2403
I1
sS'race'
p2404
I1
sS'verdict'
p2405
I1
sS'betwixt'
p2406
I0
sS'rack'
p2407
I1
sS'sovereign'
p2408
I1
sS'crow'
p2409
I1
sS'thinly'
p2410
I1
sS'waking'
p2411
I1
sS'jump'
p2412
I1
sS'issueless'
p2413
I1
sS'plead'
p2414
I1
sS'decrees'
p2415
I0
sS'pity-wanting'
p2416
I1
sS'victor'
p2417
I0
sS'giving'
p2418
I0
sS'saw'
p2419
I1
sS'expressed'
p2420
I0
sS'rotten'
p2421
I1
sS'bird'
p2422
I1
sS'body'
p2423
I1
sS'melancholy'
p2424
I0
sS'chose'
p2425
I1
sS'gathered'
p2426
I0
sS'sins'
p2427
I1
sS'nimble'
p2428
I0
sS'scythe'
p2429
I1
sS'objects'
p2430
I1
sS'let'
p2431
I1
sS'separation'
p2432
I1
sS'others'
p2433
I1
sS'dissuade'
p2434
I0
sS'sing'
p2435
I1
sS'miser'
p2436
I1
sS'extreme'
p2437
I0
sS'great'
p2438
I1
sS'burthens'
p2439
I1
sS'conceit'
p2440
I0
sS'metre'
p2441
I1
sS'leaving'
p2442
I0
sS'survey'
p2443
I0
sS'defeat'
p2444
I0
sS'proof'
p2445
I1
sS'makes'
p2446
I1
sS'writes'
p2447
I1
sS'thats'
p2448
I0
sS'composed'
p2449
I0
sS'thralled'
p2450
I1
sS'chaste'
p2451
I0
sS'apple'
p2452
I1
sS'sire'
p2453
I1
sS'forbid'
p2454
I0
sS'win'
p2455
I1
sS'private'
p2456
I0
sS'uprear'
p2457
I0
sS'instinct'
p2458
I0
sS'wit'
p2459
I1
sS'decrease'
p2460
I0
sS'scandal'
p2461
I1
sS'cloud'
p2462
I1
sS'desiring'
p2463
I0
sS'use'
p2464
I0
sS'cheered'
p2465
I0
sS'from'
p2466
I1
sS'remains'
p2467
I0
sS'hammered'
p2468
I1
sS'next'
p2469
I0
sS'few'
p2470
I1
sS'doubt'
p2471
I1
sS'themselves'
p2472
I0
sS'hiding'
p2473
I0
sS'defendant'
p2474
I0
sS'cheeks'
p2475
I0
sS'possession'
p2476
I0
sS'pencil'
p2477
I0
sS'babe'
p2478
I1
sS'pretty'
p2479
I1
sS'misuse'
p2480
I0
sS'distillation'
p2481
I1
sS'heir'
p2482
I1
sS'hied'
p2483
I1
sS'infection'
p2484
I0
sS'insufficiency'
p2485
I1
sS'sue'
p2486
I1
sS'tattered'
p2487
I1
sS'gladly'
p2488
I1
sS'harvest'
p2489
I1
sS'annoy'
p2490
I0
sS'account'
p2491
I0
sS'salving'
p2492
I1
sS'this'
p2493
I1
sS'ride'
p2494
I1
sS'linger'
p2495
I1
sS'critic'
p2496
I1
sS'crossed'
p2497
I1
sS'praise'
p2498
I1
sS'executor'
p2499
I0
sS'meet'
p2500
I0
sS'drops'
p2501
I1
sS'befits'
p2502
I0
sS'vaunt'
p2503
I0
sS'control'
p2504
I0
sS'unswept'
p2505
I1
sS'bent'
p2506
I1
sS'ushers'
p2507
I1
sS'process'
p2508
I1
sS'high'
p2509
I0
sS'sought'
p2510
I0
sS'his'
p2511
I0
sS'something'
p2512
I1
sS'bones'
p2513
I1
sS'purposed'
p2514
I1
sS'paws'
p2515
I0
sS'darkening'
p2516
I0
sS'counterfeit'
p2517
I1
sS'lamb'
p2518
I1
sS'summers'
p2519
I1
sS'counting'
p2520
I0
sS'compounded'
p2521
I0
sS'falls'
p2522
I1
sS'sit'
p2523
I1
sS'holds'
p2524
I0
sS'thrall'
p2525
I1
sS'moods'
p2526
I1
sS'swear'
p2527
I1
sS'beams'
p2528
I1
sS'mightst'
p2529
I1
sS'forsaken'
p2530
I0
sS'sin'
p2531
I1
sS'watery'
p2532
I1
sS'attend'
p2533
I0
sS'watch'
p2534
I0
sS'canker'
p2535
I1
sS'abuse'
p2536
I0
sS'fits'
p2537
I1
sS'tomb'
p2538
I1
sS'physic'
p2539
I1
sS'bankrupt'
p2540
I1
sS'untrimmed'
p2541
I0
sS'light'
p2542
I1
sS'lame'
p2543
I1
sS'lines'
p2544
I1
sS'chief'
p2545
I1
sS'writ'
p2546
I1
sS'allow'
p2547
I0
sS'tenure'
p2548
I1
sS'favourites'
p2549
I1
sS'dispraise'
p2550
I0
sS'whateer'
p2551
I0
sS'neglect'
p2552
I0
sS'beauties'
p2553
I1
sS'stamped'
p2554
I1
sS'transfix'
p2555
I0
sS'move'
p2556
I1
sS'sightless'
p2557
I1
sS'vainly'
p2558
I0
sS'whilst'
p2559
I0
sS'beguile'
p2560
I0
sS'dearest'
p2561
I1
sS'enclose'
p2562
I0
sS'looks'
p2563
I1
sS'tyrant'
p2564
I1
sS'thyself'
p2565
I0
sS'badges'
p2566
I0
sS'adders'
p2567
I1
sS'perfect'
p2568
I0
sS'refusest'
p2569
I0
sS'frailties'
p2570
I1
sS'brood'
p2571
I1
sS'whereon'
p2572
I0
sS'unstained'
p2573
I0
sS'decay'
p2574
I0
sS'lo'
p2575
I0
sS'wretchs'
p2576
I1
sS'whereof'
p2577
I1
sS'banquet'
p2578
I1
sS'themes'
p2579
I1
sS'willing'
p2580
I1
sS'choose'
p2581
I1
sS'tickled'
p2582
I1
sS'greater'
p2583
I1
sS'anchored'
p2584
I1
sS'sweets'
p2585
I1
sS'stout'
p2586
I1
sS'hands'
p2587
I1
sS'front'
p2588
I1
sS'kindness'
p2589
I1
sS'affections'
p2590
I0
sS'day'
p2591
I1
sS'damasked'
p2592
I1
sS'strive'
p2593
I1
sS'worlds'
p2594
I1
sS'profound'
p2595
I0
sS'eased'
p2596
I1
sS'feast'
p2597
I0
sS'mouthed'
p2598
I1
sS'trimmed'
p2599
I1
sS'slide'
p2600
I1
sS'truth'
p2601
I1
sS'gazing'
p2602
I1
sS'legions'
p2603
I1
sS'treads'
p2604
I0
sS'pitying'
p2605
I1
sS'doing'
p2606
I1
sS'ills'
p2607
I1
sS'alteration'
p2608
I1
sS'society'
p2609
I0
sS'decays'
p2610
I0
sS'exceeded'
p2611
I0
sS'our'
p2612
I0
sS'bay'
p2613
I1
sS'tenth'
p2614
I1
sS'beweep'
p2615
I0
sS'out'
p2616
I0
sS'respects'
p2617
I0
sS'plods'
p2618
I0
sS'confess'
p2619
I0
sS'sufficed'
p2620
I0
sS'bad'
p2621
I0
sS'frowns'
p2622
I1
sS'impart'
p2623
I0
sS'cause'
p2624
I1
sS'red'
p2625
I1
sS'perish'
p2626
I1
sS'frank'
p2627
I1
sS'darkly'
p2628
I1
sS'embassy'
p2629
I1
sS'attending'
p2630
I0
sS'tresses'
p2631
I1
sS'thrust'
p2632
I1
sS'yore'
p2633
I1
sS'cured'
p2634
I1
sS'her'
p2635
I0
sS'rearward'
p2636
I1
sS'could'
p2637
I1
sS'keep'
p2638
I1
sS'counterpart'
p2639
I1
sS'keen'
p2640
I1
sS'length'
p2641
I1
sS'cures'
p2642
I1
sS'mortal'
p2643
I1
sS'hence'
p2644
I0
sS'ears'
p2645
I0
sS'rudely'
p2646
I1
sS'new-appearing'
p2647
I1
sS'fragrant'
p2648
I1
sS'pitied'
p2649
I1
sS'possessing'
p2650
I0
sS'powerful'
p2651
I0
sS'loveliness'
p2652
I1
sS'feasts'
p2653
I1
sS'reigned'
p2654
I1
sS'quality'
p2655
I1
sS'moiety'
p2656
I1
sS'uneared'
p2657
I1
sS'sadly'
p2658
I1
sS'ordering'
p2659
I0
sS'murdrous'
p2660
I1
sS'vulgar'
p2661
I1
sS'seat'
p2662
I1
sS'their'
p2663
I0
sS'intelligence'
p2664
I0
sS'prouder'
p2665
I0
sS'travelled'
p2666
I1
sS'badness'
p2667
I1
sS'fairest'
p2668
I1
sS'painful'
p2669
I1
sS'beard'
p2670
I1
sS'watching'
p2671
I1
sS'never-resting'
p2672
I1
sS'perforce'
p2673
I0
sS'receivst'
p2674
I0
sS'prefiguring'
p2675
I0
sS'spites'
p2676
I1
sS'commence'
p2677
I0
sS'soundless'
p2678
I1
sS'steel'
p2679
I0
sS'loved'
p2680
I0
sS'unlooked'
p2681
I0
sS'aught'
p2682
I0
sS'beseem'
p2683
I0
sS'riches'
p2684
I1
sS'richer'
p2685
I0
sS'bed'
p2686
I1
sS'jollity'
p2687
I1
sS'transgression'
p2688
I0
sS'loves'
p2689
I0
sS'lover'
p2690
I0
sS'dumb'
p2691
I0
sS'steep'
p2692
I1
sS'descriptions'
p2693
I0
sS'drunk'
p2694
I1
sS'accusing'
p2695
I0
sS'enforced'
p2696
I0
sS'beggared'
p2697
I0
sS'false'
p2698
I1
sS'beggar'
p2699
I1
sS'labouring'
p2700
I1
sS'gently'
p2701
I1
sS'neer'
p2702
I0
sS'refigured'
p2703
I0
sS'gentle'
p2704
I1
sS'buy'
p2705
I0
sS'torment'
p2706
I1
sS'have'
p2707
I0
sS're-survey'
p2708
I1
sS'need'
p2709
I1
sS'turn'
p2710
I0
sS'sings'
p2711
I0
sS'bastard'
p2712
I1
sS'aprils'
p2713
I1
sS'bough'
p2714
I0
sS'wits'
p2715
I1
sS'able'
p2716
I0
sS'gravity'
p2717
I1
sS'adjunct'
p2718
I1
sS'which'
p2719
I0
sS'divert'
p2720
I0
sS'abhor'
p2721
I0
sS'adieu'
p2722
I0
sS'unless'
p2723
I0
sS'centre'
p2724
I1
sS'senses'
p2725
I1
sS'who'
p2726
I1
sS'privilage'
p2727
I1
sS'harmful'
p2728
I1
sS'offend'
p2729
I1
sS'lust'
p2730
I1
sS'but'
p2731
I0
sS'prisoner'
p2732
I1
sS'expired'
p2733
I0
sS'why'
p2734
I1
sS'afresh'
p2735
I0
sS'deny'
p2736
I0
sS'wherewith'
p2737
I0
sS'bred'
p2738
I1
sS'stronger'
p2739
I0
sS'disease'
p2740
I0
sS'face'
p2741
I1
sS'pipe'
p2742
I1
sS'pictures'
p2743
I1
sS'wounded'
p2744
I1
sS'painting'
p2745
I0
sS'outlive'
p2746
I0
sS'deface'
p2747
I0
sS'impression'
p2748
I1
sS'afloat'
p2749
I1
sS'wilful'
p2750
I1
sS'couldst'
p2751
I0
sS'burden'
p2752
I1
sS'poesy'
p2753
I1
sS'bring'
p2754
I0
sS'altring'
p2755
I0
sS'rough'
p2756
I0
sS'obsequious'
p2757
I1
sS'debate'
p2758
I0
sS'spurring'
p2759
I1
sS'envy'
p2760
I1
sS'knowledge'
p2761
I1
sS'philomel'
p2762
I1
sS'mute'
p2763
I1
sS'woo'
p2764
I1
sS'world-without-end'
p2765
I1
sS'should'
p2766
I0
sS'bases'
p2767
I1
sS'preposterously'
p2768
I0
sS'fuel'
p2769
I1
sS'marriage'
p2770
I1
sS'inhabit'
p2771
I0
sS'hope'
p2772
I1
sS'meant'
p2773
I1
sS'accessary'
p2774
I1
sS'doubting'
p2775
I1
sS'means'
p2776
I1
sS'familiar'
p2777
I0
sS'bear'
p2778
I0
sS'perfection'
p2779
I0
sS'words'
p2780
I1
sS'durst'
p2781
I1
sS'leases'
p2782
I1
sS'spur'
p2783
I1
sS'burned'
p2784
I1
sS'endless'
p2785
I1
sS'heretic'
p2786
I1
sS'evident'
p2787
I1
sS'offences'
p2788
I0
sS'gust'
p2789
I1
sS'married'
p2790
I1
sS'summon'
p2791
I1
sS'manys'
p2792
I1
sS'she'
p2793
I0
sS'contain'
p2794
I0
sS'fixed'
p2795
I0
sS'view'
p2796
I0
sS'strengthened'
p2797
I1
sS'sluttish'
p2798
I1
sS'untrue'
p2799
I0
sS'outbraves'
p2800
I0
sS'farthest'
p2801
I1
sS'miscalled'
p2802
I0
sS'frame'
p2803
I1
sS'shake'
p2804
I1
sS'legacy'
p2805
I1
sS'merits'
p2806
I1
sS'changes'
p2807
I1
sS'enfeebled'
p2808
I0
sS'violet'
p2809
I1
sS'sleeping'
p2810
I1
sS'closet'
p2811
I1
sS'record'
p2812
I1
sS'pattern'
p2813
I1
sS'vows'
p2814
I1
sS'unseeing'
p2815
I0
sS'tend'
p2816
I0
sS'state'
p2817
I1
sS'boughs'
p2818
I1
sS'progress'
p2819
I1
sS'neither'
p2820
I0
sS'besmeared'
p2821
I0
sS'wiry'
p2822
I1
sS'down-rased'
p2823
I1
sS'oer-read'
p2824
I1
sS'dateless'
p2825
I1
sS'dressings'
p2826
I1
sS'joy'
p2827
I1
sS'sorrow'
p2828
I1
sS'hooks'
p2829
I0
sS'key'
p2830
I1
sS'precious'
p2831
I1
sS'weary'
p2832
I1
sS'swift'
p2833
I1
sS'hits'
p2834
I1
sS'figured'
p2835
I1
sS'instant'
p2836
I1
sS'limits'
p2837
I1
sS'always'
p2838
I1
sS'invited'
p2839
I0
sS'acknowledge'
p2840
I0
sS'equal'
p2841
I1
sS'minds'
p2842
I1
sS'april'
p2843
I1
sS'admit'
p2844
I0
sS'devour'
p2845
I0
sS'streams'
p2846
I1
sS'behaviour'
p2847
I0
sS'canopy'
p2848
I0
sS'kinds'
p2849
I1
sS'glorious'
p2850
I0
sS'aye'
p2851
I1
sS'comment'
p2852
I1
sS'fester'
p2853
I1
sS'torn'
p2854
I1
sS'statues'
p2855
I1
sS'unfolding'
p2856
I0
sS'walk'
p2857
I1
sS'commend'
p2858
I0
sS'beguiled'
p2859
I0
sS'table'
p2860
I1
sS'renewest'
p2861
I0
sS'second'
p2862
I1
sS'addition'
p2863
I0
sS'wills'
p2864
I1
sS'gaze'
p2865
I1
sS'certain'
p2866
I1
sS'poet'
p2867
I1
sS'stickst'
p2868
I1
sS'waste'
p2869
I0
sS'define'
p2870
I1
sS'tyranny'
p2871
I1
sS'describe'
p2872
I0
sS'general'
p2873
I1
sS'proudest'
p2874
I1
sS'league'
p2875
I1
sS'painted'
p2876
I1
sS'releasing'
p2877
I0
sS'lets'
p2878
I1
sS'unmoved'
p2879
I0
sS'overturn'
p2880
I1
sS'painter'
p2881
I1
sS'wood'
p2882
I1
sS'debtor'
p2883
I1
sS'novel'
p2884
I1
sS'sourly'
p2885
I1
sS'surety-like'
p2886
I0
sS'wilt'
p2887
I0
sS'plain'
p2888
I0
sS'appearance'
p2889
I0
sS'as'
p2890
I0
sS'three-fold'
p2891
I0
sS'will'
p2892
I1
sS'riper'
p2893
I1
sS'ensconce'
p2894
I1
sS'at'
p2895
I1
sS'ripe'
p2896
I1
sS'physicians'
p2897
I1
sS'almost'
p2898
I1
sS'up-locked'
p2899
I0
sS'thus'
p2900
I0
sS'lascivious'
p2901
I0
sS'lambs'
p2902
I1
sS'sits'
p2903
I1
sS'halt'
p2904
I1
sS'ransom'
p2905
I1
sS'all-eating'
p2906
I0
sS'servants'
p2907
I1
sS'perhaps'
p2908
I0
sS'cross'
p2909
I1
sS'proceeds'
p2910
I0
sS'largess'
p2911
I0
sS'adverse'
p2912
I1
sS'parts'
p2913
I1
sS'duteous'
p2914
I1
sS'freezings'
p2915
I1
sS'party'
p2916
I1
sS'well-contented'
p2917
I1
sS'blooms'
p2918
I1
sS'slave'
p2919
I1
sS'flesh'
p2920
I0
sS'shames'
p2921
I1
sS'lasting'
p2922
I1
sS'drink'
p2923
I0
sS'upon'
p2924
I0
sS'effect'
p2925
I0
sS'outcast'
p2926
I1
sS'nightly'
p2927
I1
sS'pourst'
p2928
I1
sS'fierce'
p2929
I0
sS'judgment'
p2930
I1
sS'steals'
p2931
I1
sS'audit'
p2932
I1
sS'scarcely'
p2933
I1
sS'off'
p2934
I1
sS'i'
p2935
I0
sS'whole'
p2936
I1
sS'colour'
p2937
I0
sS'well'
p2938
I1
sS'thought'
p2939
I1
sS'amends'
p2940
I0
sS'oft'
p2941
I1
sS'sets'
p2942
I0
sS'arising'
p2943
I0
sS'twire'
p2944
I0
sS'lest'
p2945
I0
sS'restore'
p2946
I0
sS'feathered'
p2947
I1
sS'stores'
p2948
I1
sS'kiss'
p2949
I0
sS'heavily'
p2950
I1
sS'gulls'
p2951
I1
sS'cries'
p2952
I0
sS'interim'
p2953
I1
sS'skill'
p2954
I1
sS'thither'
p2955
I1
sS'dost'
p2956
I0
sS'reckoning'
p2957
I1
sS'field'
p2958
I1
sS'onward'
p2959
I1
sS'sky'
p2960
I1
sS'fled'
p2961
I1
sS'simple'
p2962
I1
sS'add'
p2963
I1
sS'other'
p2964
I1
sS'wet'
p2965
I1
sS'wandring'
p2966
I0
sS'raven'
p2967
I1
sS'wooed'
p2968
I1
sS'fate'
p2969
I1
sS'testy'
p2970
I1
sS'devised'
p2971
I1
sS'crushed'
p2972
I1
sS'smother'
p2973
I1
sS'five'
p2974
I0
sS'know'
p2975
I1
sS'unseen'
p2976
I0
sS'press'
p2977
I0
sS'fools'
p2978
I1
sS'loss'
p2979
I1
sS'showing'
p2980
I0
sS'like'
p2981
I1
sS'lost'
p2982
I1
sS'perpetual'
p2983
I0
sS'rich-proud'
p2984
I1
sS'admitted'
p2985
I0
sS'dove'
p2986
I1
sS'heed'
p2987
I1
sS'lose'
p2988
I1
sS'nerves'
p2989
I1
sS'works'
p2990
I1
sS'page'
p2991
I1
sS'lends'
p2992
I1
sS'therein'
p2993
I1
sS'decease'
p2994
I0
sS'exceed'
p2995
I0
sS'inconstant'
p2996
I0
sS'workings'
p2997
I1
sS'thief'
p2998
I0
sS'alive'
p2999
I0
sS'immortal'
p3000
I0
sS'hush'
p3001
I1
sS'growth'
p3002
I1
sS'sickles'
p3003
I1
sS'home'
p3004
I1
sS'transport'
p3005
I0
sS'lead'
p3006
I1
sS'broad'
p3007
I0
sS'lean'
p3008
I0
sS'leap'
p3009
I0
sS'passion'
p3010
I1
sS'masked'
p3011
I0
sS'decembers'
p3012
I0
sS'poets'
p3013
I1
sS'slight'
p3014
I0
sS'expire'
p3015
I0
sS'presentst'
p3016
I0
sS'although'
p3017
I0
sS'worthy'
p3018
I1
sS'posterity'
p3019
I1
sS'imaginary'
p3020
I0
sS'insults'
p3021
I0
sS'worths'
p3022
I1
sS'stage'
p3023
I1
sS'about'
p3024
I0
sS'rare'
p3025
I0
sS'owst'
p3026
I1
sS'freedom'
p3027
I1
sS'harder'
p3028
I1
sS'blessings'
p3029
I0
sS'gainer'
p3030
I1
sS'hairs'
p3031
I1
sS'tongue'
p3032
I1
sS'beshrew'
p3033
I0
sS'outstripped'
p3034
I0
sS'own'
p3035
I0
sS'polished'
p3036
I1
sS'childrens'
p3037
I1
sS'owe'
p3038
I1
sS'attaint'
p3039
I0
sS'guard'
p3040
I1
sS'promise'
p3041
I1
sS'esteem'
p3042
I1
sS'female'
p3043
I1
sS'lawful'
p3044
I0
sS'quickly'
p3045
I1
sS'rudst'
p3046
I1
sS'gazeth'
p3047
I1
sS'suborned'
p3048
I0
sS'victors'
p3049
I1
sS'veil'
p3050
I1
sS'trenches'
p3051
I1
sS'watchman'
p3052
I1
sS'spread'
p3053
I1
sS'function'
p3054
I1
sS'prophetic'
p3055
I0
sS'hoisted'
p3056
I1
sS'learneds'
p3057
I0
sS'brand'
p3058
I1
sS'invocate'
p3059
I1
sS'fountains'
p3060
I1
sS'gait'
p3061
I1
sS'prophecies'
p3062
I1
sS'plague'
p3063
I1
sS'gain'
p3064
I1
sS'delivers'
p3065
I1
sS'ear'
p3066
I1
sS'eat'
p3067
I0
sS'bud'
p3068
I1
sS'he'
p3069
I0
sS'count'
p3070
I1
sS'made'
p3071
I1
sS'wise'
p3072
I1
sS'princes'
p3073
I1
sS'glory'
p3074
I1
sS'whether'
p3075
I1
sS'wish'
p3076
I1
sS'grieve'
p3077
I1
sS'triumphant'
p3078
I0
sS'placed'
p3079
I1
sS'cruel'
p3080
I1
sS'converted'
p3081
I0
sS'limit'
p3082
I1
sS'monument'
p3083
I1
sS'infants'
p3084
I1
sS'minutes'
p3085
I1
sS'oercharged'
p3086
I0
sS'bearing'
p3087
I1
sS'rightly'
p3088
I1
sS'deaths'
p3089
I1
sS'devise'
p3090
I0
sS'measure'
p3091
I1
sS'bravry'
p3092
I1
sS'dearth'
p3093
I1
sS'denote'
p3094
I0
sS'goodness'
p3095
I1
sS'ink'
p3096
I1
sS'self-killed'
p3097
I0
sS'naming'
p3098
I0
sS'endeared'
p3099
I0
sS'nursed'
p3100
I1
sS'mutual'
p3101
I1
sS'compared'
p3102
I0
sS'didst'
p3103
I1
sS'dressed'
p3104
I1
sS'boot'
p3105
I1
sS'forests'
p3106
I1
sS'slumbers'
p3107
I1
sS'book'
p3108
I0
sS'witness'
p3109
I0
sS'sick'
p3110
I1
sS'unlettered'
p3111
I0
sS'behold'
p3112
I0
sS'beseechers'
p3113
I0
sS'thrivers'
p3114
I1
sS'semblance'
p3115
I1
sS'star'
p3116
I1
sS'oppression'
p3117
I0
sS'variation'
p3118
I1
sS'stay'
p3119
I1
sS'methinks'
p3120
I0
sS'chance'
p3121
I1
sS'earthly'
p3122
I0
sS'astronomy'
p3123
I0
sS'friends'
p3124
I1
sS'bettring'
p3125
I1
sS'tan'
p3126
I0
sS'ghost'
p3127
I1
sS'stirred'
p3128
I0
sS'wondring'
p3129
I1
sS'self-example'
p3130
I1
sS'ranks'
p3131
I1
sS'love-kindling'
p3132
I0
sS'jewel'
p3133
I1
sS'pictured'
p3134
I1
sS'pupil'
p3135
I1
sS'vassal'
p3136
I1
sS'determination'
p3137
I1
sS'accidents'
p3138
I0
sS'gardens'
p3139
I1
s.